
TBoardControllerRev2.elf:     file format elf32-avr

Sections:
Idx Name          Size      VMA       LMA       File off  Algn
  0 .data         0000006a  00800100  000038b8  0000396c  2**0
                  CONTENTS, ALLOC, LOAD, DATA
  1 .text         000038b8  00000000  00000000  000000b4  2**1
                  CONTENTS, ALLOC, LOAD, READONLY, CODE
  2 .bss          000001d7  0080016a  0080016a  000039d6  2**0
                  ALLOC
  3 .eeprom       00000023  00810000  00810000  000039d6  2**0
                  CONTENTS, ALLOC, LOAD, DATA
  4 .comment      0000005c  00000000  00000000  000039f9  2**0
                  CONTENTS, READONLY
  5 .note.gnu.avr.deviceinfo 00000040  00000000  00000000  00003a58  2**2
                  CONTENTS, READONLY
  6 .debug_aranges 000000a0  00000000  00000000  00003a98  2**3
                  CONTENTS, READONLY, DEBUGGING
  7 .debug_info   00000cfb  00000000  00000000  00003b38  2**0
                  CONTENTS, READONLY, DEBUGGING
  8 .debug_abbrev 000009ce  00000000  00000000  00004833  2**0
                  CONTENTS, READONLY, DEBUGGING
  9 .debug_line   000004be  00000000  00000000  00005201  2**0
                  CONTENTS, READONLY, DEBUGGING
 10 .debug_str    00000371  00000000  00000000  000056bf  2**0
                  CONTENTS, READONLY, DEBUGGING

Disassembly of section .text:

00000000 <__vectors>:
       0:	0c 94 c3 00 	jmp	0x186	; 0x186 <__dtors_end>
       4:	0c 94 eb 00 	jmp	0x1d6	; 0x1d6 <__bad_interrupt>
       8:	0c 94 eb 00 	jmp	0x1d6	; 0x1d6 <__bad_interrupt>
       c:	0c 94 eb 00 	jmp	0x1d6	; 0x1d6 <__bad_interrupt>
      10:	0c 94 eb 00 	jmp	0x1d6	; 0x1d6 <__bad_interrupt>
      14:	0c 94 eb 00 	jmp	0x1d6	; 0x1d6 <__bad_interrupt>
      18:	0c 94 eb 00 	jmp	0x1d6	; 0x1d6 <__bad_interrupt>
      1c:	0c 94 eb 00 	jmp	0x1d6	; 0x1d6 <__bad_interrupt>
      20:	0c 94 eb 00 	jmp	0x1d6	; 0x1d6 <__bad_interrupt>
      24:	0c 94 eb 00 	jmp	0x1d6	; 0x1d6 <__bad_interrupt>
      28:	0c 94 22 12 	jmp	0x2444	; 0x2444 <__vector_10>
      2c:	0c 94 5c 12 	jmp	0x24b8	; 0x24b8 <__vector_11>
      30:	0c 94 eb 00 	jmp	0x1d6	; 0x1d6 <__bad_interrupt>
      34:	0c 94 eb 00 	jmp	0x1d6	; 0x1d6 <__bad_interrupt>
      38:	0c 94 eb 00 	jmp	0x1d6	; 0x1d6 <__bad_interrupt>
      3c:	0c 94 eb 00 	jmp	0x1d6	; 0x1d6 <__bad_interrupt>
      40:	0c 94 eb 00 	jmp	0x1d6	; 0x1d6 <__bad_interrupt>
      44:	0c 94 27 11 	jmp	0x224e	; 0x224e <__vector_17>
      48:	0c 94 eb 00 	jmp	0x1d6	; 0x1d6 <__bad_interrupt>
      4c:	0c 94 eb 00 	jmp	0x1d6	; 0x1d6 <__bad_interrupt>
      50:	0c 94 eb 00 	jmp	0x1d6	; 0x1d6 <__bad_interrupt>
      54:	0c 94 eb 00 	jmp	0x1d6	; 0x1d6 <__bad_interrupt>
      58:	0c 94 eb 00 	jmp	0x1d6	; 0x1d6 <__bad_interrupt>
      5c:	0c 94 eb 00 	jmp	0x1d6	; 0x1d6 <__bad_interrupt>
      60:	0c 94 eb 00 	jmp	0x1d6	; 0x1d6 <__bad_interrupt>
      64:	0c 94 eb 00 	jmp	0x1d6	; 0x1d6 <__bad_interrupt>
      68:	0c 94 eb 00 	jmp	0x1d6	; 0x1d6 <__bad_interrupt>
      6c:	0c 94 eb 00 	jmp	0x1d6	; 0x1d6 <__bad_interrupt>
      70:	0c 94 eb 00 	jmp	0x1d6	; 0x1d6 <__bad_interrupt>
      74:	0c 94 eb 00 	jmp	0x1d6	; 0x1d6 <__bad_interrupt>
      78:	0c 94 eb 00 	jmp	0x1d6	; 0x1d6 <__bad_interrupt>
      7c:	0c 94 eb 00 	jmp	0x1d6	; 0x1d6 <__bad_interrupt>
      80:	0c 94 eb 00 	jmp	0x1d6	; 0x1d6 <__bad_interrupt>
      84:	0c 94 eb 00 	jmp	0x1d6	; 0x1d6 <__bad_interrupt>
      88:	0c 94 eb 00 	jmp	0x1d6	; 0x1d6 <__bad_interrupt>
      8c:	0c 94 eb 00 	jmp	0x1d6	; 0x1d6 <__bad_interrupt>
      90:	0c 94 eb 00 	jmp	0x1d6	; 0x1d6 <__bad_interrupt>
      94:	0c 94 eb 00 	jmp	0x1d6	; 0x1d6 <__bad_interrupt>
      98:	0c 94 eb 00 	jmp	0x1d6	; 0x1d6 <__bad_interrupt>
      9c:	0c 94 eb 00 	jmp	0x1d6	; 0x1d6 <__bad_interrupt>
      a0:	0c 94 eb 00 	jmp	0x1d6	; 0x1d6 <__bad_interrupt>
      a4:	0c 94 eb 00 	jmp	0x1d6	; 0x1d6 <__bad_interrupt>
      a8:	0c 94 eb 00 	jmp	0x1d6	; 0x1d6 <__bad_interrupt>

000000ac <__trampolines_end>:
      ac:	63 64       	ori	r22, 0x43	; 67
      ae:	69 6e       	ori	r22, 0xE9	; 233
      b0:	6f 70       	andi	r22, 0x0F	; 15
      b2:	73 75       	andi	r23, 0x53	; 83
      b4:	78 58       	subi	r23, 0x88	; 136
      b6:	5b 00       	.word	0x005b	; ????

000000b8 <descriptor_list>:
      b8:	00 01 00 00 63 01 12 00 02 00 00 20 01 43 00 03     ....c...... .C..
      c8:	00 00 1c 01 04 01 03 09 04 f8 00 22 02 03 09 04     ..........."....
      d8:	ec 00 0a 03 03 09 04 e2 00 08                       ..........

000000e2 <string3>:
      e2:	08 03 34 00 31 00 30 00 00 00                       ..4.1.0...

000000ec <string2>:
      ec:	0a 03 53 00 45 00 54 00 69 00 00 00                 ..S.E.T.i...

000000f8 <string1>:
      f8:	22 03 41 00 6e 00 64 00 72 00 65 00 77 00 20 00     ".A.n.d.r.e.w. .
     108:	45 00 6c 00 6d 00 65 00 6e 00 64 00 6f 00 72 00     E.l.m.e.n.d.o.r.
     118:	66 00 00 00                                         f...

0000011c <string0>:
     11c:	04 03 09 04                                         ....

00000120 <config1_descriptor>:
     120:	09 02 43 00 02 01 00 c0 32 09 04 00 00 01 02 02     ..C.....2.......
     130:	01 00 05 24 00 10 01 05 24 01 01 01 04 24 02 06     ...$....$....$..
     140:	05 24 06 00 01 07 05 82 03 10 00 40 09 04 01 00     .$.........@....
     150:	02 0a 00 00 00 07 05 03 02 40 00 00 07 05 84 02     .........@......
     160:	40 00 00                                            @..

00000163 <device_descriptor>:
     163:	12 01 00 02 02 00 00 10 c0 16 7a 04 00 01 01 02     ..........z.....
     173:	03 01                                               ..

00000175 <endpoint_config_table>:
     175:	00 01 c1 12 01 80 36 01 81 36 00                    ......6..6.

00000180 <__ctors_start>:
     180:	5a 03       	fmul	r21, r18
     182:	c6 03       	fmuls	r20, r22

00000184 <__ctors_end>:
     184:	d9 03       	fmulsu	r21, r17

00000186 <__dtors_end>:
     186:	11 24       	eor	r1, r1
     188:	1f be       	out	0x3f, r1	; 63
     18a:	cf ef       	ldi	r28, 0xFF	; 255
     18c:	da e0       	ldi	r29, 0x0A	; 10
     18e:	de bf       	out	0x3e, r29	; 62
     190:	cd bf       	out	0x3d, r28	; 61

00000192 <__do_copy_data>:
     192:	11 e0       	ldi	r17, 0x01	; 1
     194:	a0 e0       	ldi	r26, 0x00	; 0
     196:	b1 e0       	ldi	r27, 0x01	; 1
     198:	e8 eb       	ldi	r30, 0xB8	; 184
     19a:	f8 e3       	ldi	r31, 0x38	; 56
     19c:	02 c0       	rjmp	.+4      	; 0x1a2 <__do_copy_data+0x10>
     19e:	05 90       	lpm	r0, Z+
     1a0:	0d 92       	st	X+, r0
     1a2:	aa 36       	cpi	r26, 0x6A	; 106
     1a4:	b1 07       	cpc	r27, r17
     1a6:	d9 f7       	brne	.-10     	; 0x19e <__do_copy_data+0xc>

000001a8 <__do_clear_bss>:
     1a8:	23 e0       	ldi	r18, 0x03	; 3
     1aa:	aa e6       	ldi	r26, 0x6A	; 106
     1ac:	b1 e0       	ldi	r27, 0x01	; 1
     1ae:	01 c0       	rjmp	.+2      	; 0x1b2 <.do_clear_bss_start>

000001b0 <.do_clear_bss_loop>:
     1b0:	1d 92       	st	X+, r1

000001b2 <.do_clear_bss_start>:
     1b2:	a1 34       	cpi	r26, 0x41	; 65
     1b4:	b2 07       	cpc	r27, r18
     1b6:	e1 f7       	brne	.-8      	; 0x1b0 <.do_clear_bss_loop>

000001b8 <__do_global_ctors>:
     1b8:	10 e0       	ldi	r17, 0x00	; 0
     1ba:	c2 ec       	ldi	r28, 0xC2	; 194
     1bc:	d0 e0       	ldi	r29, 0x00	; 0
     1be:	04 c0       	rjmp	.+8      	; 0x1c8 <__do_global_ctors+0x10>
     1c0:	21 97       	sbiw	r28, 0x01	; 1
     1c2:	fe 01       	movw	r30, r28
     1c4:	0e 94 e1 15 	call	0x2bc2	; 0x2bc2 <__tablejump2__>
     1c8:	c0 3c       	cpi	r28, 0xC0	; 192
     1ca:	d1 07       	cpc	r29, r17
     1cc:	c9 f7       	brne	.-14     	; 0x1c0 <__do_global_ctors+0x8>
     1ce:	0e 94 b7 03 	call	0x76e	; 0x76e <main>
     1d2:	0c 94 4f 1c 	jmp	0x389e	; 0x389e <__do_global_dtors>

000001d6 <__bad_interrupt>:
     1d6:	0c 94 00 00 	jmp	0	; 0x0 <__vectors>

000001da <_ZN9LedDriverC1Ev>:
     1da:	08 95       	ret

000001dc <_ZN9LedDriverC1EPVhRKhf>:
     1dc:	0f 93       	push	r16
     1de:	1f 93       	push	r17
     1e0:	fc 01       	movw	r30, r24
     1e2:	71 83       	std	Z+1, r23	; 0x01
     1e4:	60 83       	st	Z, r22
     1e6:	da 01       	movw	r26, r20
     1e8:	8c 91       	ld	r24, X
     1ea:	82 83       	std	Z+2, r24	; 0x02
     1ec:	03 83       	std	Z+3, r16	; 0x03
     1ee:	14 83       	std	Z+4, r17	; 0x04
     1f0:	25 83       	std	Z+5, r18	; 0x05
     1f2:	36 83       	std	Z+6, r19	; 0x06
     1f4:	1f 91       	pop	r17
     1f6:	0f 91       	pop	r16
     1f8:	08 95       	ret

000001fa <_ZN9LedDriver6TurnOnEb>:
     1fa:	cf 92       	push	r12
     1fc:	df 92       	push	r13
     1fe:	ef 92       	push	r14
     200:	ff 92       	push	r15
     202:	1f 93       	push	r17
     204:	cf 93       	push	r28
     206:	df 93       	push	r29
     208:	ec 01       	movw	r28, r24
     20a:	16 2f       	mov	r17, r22
     20c:	cb 80       	ldd	r12, Y+3	; 0x03
     20e:	dc 80       	ldd	r13, Y+4	; 0x04
     210:	ed 80       	ldd	r14, Y+5	; 0x05
     212:	fe 80       	ldd	r15, Y+6	; 0x06
     214:	20 e0       	ldi	r18, 0x00	; 0
     216:	30 e0       	ldi	r19, 0x00	; 0
     218:	a9 01       	movw	r20, r18
     21a:	c7 01       	movw	r24, r14
     21c:	b6 01       	movw	r22, r12
     21e:	0e 94 15 14 	call	0x282a	; 0x282a <__cmpsf2>
     222:	18 16       	cp	r1, r24
     224:	7c f0       	brlt	.+30     	; 0x244 <_ZN9LedDriver6TurnOnEb+0x4a>
     226:	e8 81       	ld	r30, Y
     228:	f9 81       	ldd	r31, Y+1	; 0x01
     22a:	20 81       	ld	r18, Z
     22c:	81 e0       	ldi	r24, 0x01	; 1
     22e:	90 e0       	ldi	r25, 0x00	; 0
     230:	0a 80       	ldd	r0, Y+2	; 0x02
     232:	02 c0       	rjmp	.+4      	; 0x238 <_ZN9LedDriver6TurnOnEb+0x3e>
     234:	88 0f       	add	r24, r24
     236:	99 1f       	adc	r25, r25
     238:	0a 94       	dec	r0
     23a:	e2 f7       	brpl	.-8      	; 0x234 <_ZN9LedDriver6TurnOnEb+0x3a>
     23c:	80 95       	com	r24
     23e:	82 23       	and	r24, r18
     240:	80 83       	st	Z, r24
     242:	6a c0       	rjmp	.+212    	; 0x318 <_ZN9LedDriver6TurnOnEb+0x11e>
     244:	20 e0       	ldi	r18, 0x00	; 0
     246:	30 e0       	ldi	r19, 0x00	; 0
     248:	40 e0       	ldi	r20, 0x00	; 0
     24a:	51 e4       	ldi	r21, 0x41	; 65
     24c:	c7 01       	movw	r24, r14
     24e:	b6 01       	movw	r22, r12
     250:	0e 94 74 15 	call	0x2ae8	; 0x2ae8 <__mulsf3>
     254:	20 e0       	ldi	r18, 0x00	; 0
     256:	30 e0       	ldi	r19, 0x00	; 0
     258:	40 ea       	ldi	r20, 0xA0	; 160
     25a:	50 e4       	ldi	r21, 0x40	; 64
     25c:	0e 94 1a 14 	call	0x2834	; 0x2834 <__divsf3>
     260:	9b 01       	movw	r18, r22
     262:	ac 01       	movw	r20, r24
     264:	60 e0       	ldi	r22, 0x00	; 0
     266:	70 e0       	ldi	r23, 0x00	; 0
     268:	84 e0       	ldi	r24, 0x04	; 4
     26a:	92 e4       	ldi	r25, 0x42	; 66
     26c:	0e 94 a8 13 	call	0x2750	; 0x2750 <__subsf3>
     270:	0e 94 8c 14 	call	0x2918	; 0x2918 <__fixsfsi>
     274:	11 23       	and	r17, r17
     276:	91 f0       	breq	.+36     	; 0x29c <_ZN9LedDriver6TurnOnEb+0xa2>
     278:	e8 81       	ld	r30, Y
     27a:	f9 81       	ldd	r31, Y+1	; 0x01
     27c:	20 81       	ld	r18, Z
     27e:	81 e0       	ldi	r24, 0x01	; 1
     280:	90 e0       	ldi	r25, 0x00	; 0
     282:	0a 80       	ldd	r0, Y+2	; 0x02
     284:	02 c0       	rjmp	.+4      	; 0x28a <_ZN9LedDriver6TurnOnEb+0x90>
     286:	88 0f       	add	r24, r24
     288:	99 1f       	adc	r25, r25
     28a:	0a 94       	dec	r0
     28c:	e2 f7       	brpl	.-8      	; 0x286 <_ZN9LedDriver6TurnOnEb+0x8c>
     28e:	80 95       	com	r24
     290:	82 23       	and	r24, r18
     292:	80 83       	st	Z, r24
     294:	2a e1       	ldi	r18, 0x1A	; 26
     296:	2a 95       	dec	r18
     298:	f1 f7       	brne	.-4      	; 0x296 <_ZN9LedDriver6TurnOnEb+0x9c>
     29a:	00 c0       	rjmp	.+0      	; 0x29c <_ZN9LedDriver6TurnOnEb+0xa2>
     29c:	80 e0       	ldi	r24, 0x00	; 0
     29e:	90 e0       	ldi	r25, 0x00	; 0
     2a0:	a1 e0       	ldi	r26, 0x01	; 1
     2a2:	b0 e0       	ldi	r27, 0x00	; 0
     2a4:	86 17       	cp	r24, r22
     2a6:	97 07       	cpc	r25, r23
     2a8:	04 f5       	brge	.+64     	; 0x2ea <_ZN9LedDriver6TurnOnEb+0xf0>
     2aa:	e8 81       	ld	r30, Y
     2ac:	f9 81       	ldd	r31, Y+1	; 0x01
     2ae:	40 81       	ld	r20, Z
     2b0:	9d 01       	movw	r18, r26
     2b2:	0a 80       	ldd	r0, Y+2	; 0x02
     2b4:	02 c0       	rjmp	.+4      	; 0x2ba <_ZN9LedDriver6TurnOnEb+0xc0>
     2b6:	22 0f       	add	r18, r18
     2b8:	33 1f       	adc	r19, r19
     2ba:	0a 94       	dec	r0
     2bc:	e2 f7       	brpl	.-8      	; 0x2b6 <_ZN9LedDriver6TurnOnEb+0xbc>
     2be:	24 2b       	or	r18, r20
     2c0:	20 83       	st	Z, r18
     2c2:	2a e1       	ldi	r18, 0x1A	; 26
     2c4:	2a 95       	dec	r18
     2c6:	f1 f7       	brne	.-4      	; 0x2c4 <_ZN9LedDriver6TurnOnEb+0xca>
     2c8:	00 c0       	rjmp	.+0      	; 0x2ca <_ZN9LedDriver6TurnOnEb+0xd0>
     2ca:	e8 81       	ld	r30, Y
     2cc:	f9 81       	ldd	r31, Y+1	; 0x01
     2ce:	30 81       	ld	r19, Z
     2d0:	ad 01       	movw	r20, r26
     2d2:	0a 80       	ldd	r0, Y+2	; 0x02
     2d4:	02 c0       	rjmp	.+4      	; 0x2da <_ZN9LedDriver6TurnOnEb+0xe0>
     2d6:	44 0f       	add	r20, r20
     2d8:	55 1f       	adc	r21, r21
     2da:	0a 94       	dec	r0
     2dc:	e2 f7       	brpl	.-8      	; 0x2d6 <_ZN9LedDriver6TurnOnEb+0xdc>
     2de:	24 2f       	mov	r18, r20
     2e0:	20 95       	com	r18
     2e2:	23 23       	and	r18, r19
     2e4:	20 83       	st	Z, r18
     2e6:	01 96       	adiw	r24, 0x01	; 1
     2e8:	dd cf       	rjmp	.-70     	; 0x2a4 <_ZN9LedDriver6TurnOnEb+0xaa>
     2ea:	8a e1       	ldi	r24, 0x1A	; 26
     2ec:	8a 95       	dec	r24
     2ee:	f1 f7       	brne	.-4      	; 0x2ec <_ZN9LedDriver6TurnOnEb+0xf2>
     2f0:	00 c0       	rjmp	.+0      	; 0x2f2 <_ZN9LedDriver6TurnOnEb+0xf8>
     2f2:	e8 81       	ld	r30, Y
     2f4:	f9 81       	ldd	r31, Y+1	; 0x01
     2f6:	20 81       	ld	r18, Z
     2f8:	81 e0       	ldi	r24, 0x01	; 1
     2fa:	90 e0       	ldi	r25, 0x00	; 0
     2fc:	0a 80       	ldd	r0, Y+2	; 0x02
     2fe:	02 c0       	rjmp	.+4      	; 0x304 <_ZN9LedDriver6TurnOnEb+0x10a>
     300:	88 0f       	add	r24, r24
     302:	99 1f       	adc	r25, r25
     304:	0a 94       	dec	r0
     306:	e2 f7       	brpl	.-8      	; 0x300 <_ZN9LedDriver6TurnOnEb+0x106>
     308:	82 2b       	or	r24, r18
     30a:	80 83       	st	Z, r24
     30c:	87 e0       	ldi	r24, 0x07	; 7
     30e:	92 e0       	ldi	r25, 0x02	; 2
     310:	01 97       	sbiw	r24, 0x01	; 1
     312:	f1 f7       	brne	.-4      	; 0x310 <_ZN9LedDriver6TurnOnEb+0x116>
     314:	00 c0       	rjmp	.+0      	; 0x316 <_ZN9LedDriver6TurnOnEb+0x11c>
     316:	00 00       	nop
     318:	df 91       	pop	r29
     31a:	cf 91       	pop	r28
     31c:	1f 91       	pop	r17
     31e:	ff 90       	pop	r15
     320:	ef 90       	pop	r14
     322:	df 90       	pop	r13
     324:	cf 90       	pop	r12
     326:	08 95       	ret

00000328 <_ZN9LedDriver6TurnOnERKfb>:
     328:	cf 92       	push	r12
     32a:	df 92       	push	r13
     32c:	ef 92       	push	r14
     32e:	ff 92       	push	r15
     330:	1f 93       	push	r17
     332:	cf 93       	push	r28
     334:	df 93       	push	r29
     336:	ec 01       	movw	r28, r24
     338:	14 2f       	mov	r17, r20
     33a:	fb 01       	movw	r30, r22
     33c:	c0 80       	ld	r12, Z
     33e:	d1 80       	ldd	r13, Z+1	; 0x01
     340:	e2 80       	ldd	r14, Z+2	; 0x02
     342:	f3 80       	ldd	r15, Z+3	; 0x03
     344:	20 e0       	ldi	r18, 0x00	; 0
     346:	30 e0       	ldi	r19, 0x00	; 0
     348:	a9 01       	movw	r20, r18
     34a:	c7 01       	movw	r24, r14
     34c:	b6 01       	movw	r22, r12
     34e:	0e 94 15 14 	call	0x282a	; 0x282a <__cmpsf2>
     352:	18 16       	cp	r1, r24
     354:	7c f0       	brlt	.+30     	; 0x374 <_ZN9LedDriver6TurnOnERKfb+0x4c>
     356:	e8 81       	ld	r30, Y
     358:	f9 81       	ldd	r31, Y+1	; 0x01
     35a:	20 81       	ld	r18, Z
     35c:	81 e0       	ldi	r24, 0x01	; 1
     35e:	90 e0       	ldi	r25, 0x00	; 0
     360:	0a 80       	ldd	r0, Y+2	; 0x02
     362:	02 c0       	rjmp	.+4      	; 0x368 <_ZN9LedDriver6TurnOnERKfb+0x40>
     364:	88 0f       	add	r24, r24
     366:	99 1f       	adc	r25, r25
     368:	0a 94       	dec	r0
     36a:	e2 f7       	brpl	.-8      	; 0x364 <_ZN9LedDriver6TurnOnERKfb+0x3c>
     36c:	80 95       	com	r24
     36e:	82 23       	and	r24, r18
     370:	80 83       	st	Z, r24
     372:	6a c0       	rjmp	.+212    	; 0x448 <__EEPROM_REGION_LENGTH__+0x48>
     374:	20 e0       	ldi	r18, 0x00	; 0
     376:	30 e0       	ldi	r19, 0x00	; 0
     378:	40 e0       	ldi	r20, 0x00	; 0
     37a:	51 e4       	ldi	r21, 0x41	; 65
     37c:	c7 01       	movw	r24, r14
     37e:	b6 01       	movw	r22, r12
     380:	0e 94 74 15 	call	0x2ae8	; 0x2ae8 <__mulsf3>
     384:	20 e0       	ldi	r18, 0x00	; 0
     386:	30 e0       	ldi	r19, 0x00	; 0
     388:	40 ea       	ldi	r20, 0xA0	; 160
     38a:	50 e4       	ldi	r21, 0x40	; 64
     38c:	0e 94 1a 14 	call	0x2834	; 0x2834 <__divsf3>
     390:	9b 01       	movw	r18, r22
     392:	ac 01       	movw	r20, r24
     394:	60 e0       	ldi	r22, 0x00	; 0
     396:	70 e0       	ldi	r23, 0x00	; 0
     398:	84 e0       	ldi	r24, 0x04	; 4
     39a:	92 e4       	ldi	r25, 0x42	; 66
     39c:	0e 94 a8 13 	call	0x2750	; 0x2750 <__subsf3>
     3a0:	0e 94 8c 14 	call	0x2918	; 0x2918 <__fixsfsi>
     3a4:	11 23       	and	r17, r17
     3a6:	91 f0       	breq	.+36     	; 0x3cc <_ZN9LedDriver6TurnOnERKfb+0xa4>
     3a8:	e8 81       	ld	r30, Y
     3aa:	f9 81       	ldd	r31, Y+1	; 0x01
     3ac:	20 81       	ld	r18, Z
     3ae:	81 e0       	ldi	r24, 0x01	; 1
     3b0:	90 e0       	ldi	r25, 0x00	; 0
     3b2:	0a 80       	ldd	r0, Y+2	; 0x02
     3b4:	02 c0       	rjmp	.+4      	; 0x3ba <_ZN9LedDriver6TurnOnERKfb+0x92>
     3b6:	88 0f       	add	r24, r24
     3b8:	99 1f       	adc	r25, r25
     3ba:	0a 94       	dec	r0
     3bc:	e2 f7       	brpl	.-8      	; 0x3b6 <_ZN9LedDriver6TurnOnERKfb+0x8e>
     3be:	80 95       	com	r24
     3c0:	82 23       	and	r24, r18
     3c2:	80 83       	st	Z, r24
     3c4:	fa e1       	ldi	r31, 0x1A	; 26
     3c6:	fa 95       	dec	r31
     3c8:	f1 f7       	brne	.-4      	; 0x3c6 <_ZN9LedDriver6TurnOnERKfb+0x9e>
     3ca:	00 c0       	rjmp	.+0      	; 0x3cc <_ZN9LedDriver6TurnOnERKfb+0xa4>
     3cc:	80 e0       	ldi	r24, 0x00	; 0
     3ce:	90 e0       	ldi	r25, 0x00	; 0
     3d0:	a1 e0       	ldi	r26, 0x01	; 1
     3d2:	b0 e0       	ldi	r27, 0x00	; 0
     3d4:	86 17       	cp	r24, r22
     3d6:	97 07       	cpc	r25, r23
     3d8:	04 f5       	brge	.+64     	; 0x41a <__EEPROM_REGION_LENGTH__+0x1a>
     3da:	e8 81       	ld	r30, Y
     3dc:	f9 81       	ldd	r31, Y+1	; 0x01
     3de:	40 81       	ld	r20, Z
     3e0:	9d 01       	movw	r18, r26
     3e2:	0a 80       	ldd	r0, Y+2	; 0x02
     3e4:	02 c0       	rjmp	.+4      	; 0x3ea <_ZN9LedDriver6TurnOnERKfb+0xc2>
     3e6:	22 0f       	add	r18, r18
     3e8:	33 1f       	adc	r19, r19
     3ea:	0a 94       	dec	r0
     3ec:	e2 f7       	brpl	.-8      	; 0x3e6 <_ZN9LedDriver6TurnOnERKfb+0xbe>
     3ee:	24 2b       	or	r18, r20
     3f0:	20 83       	st	Z, r18
     3f2:	2a e1       	ldi	r18, 0x1A	; 26
     3f4:	2a 95       	dec	r18
     3f6:	f1 f7       	brne	.-4      	; 0x3f4 <_ZN9LedDriver6TurnOnERKfb+0xcc>
     3f8:	00 c0       	rjmp	.+0      	; 0x3fa <_ZN9LedDriver6TurnOnERKfb+0xd2>
     3fa:	e8 81       	ld	r30, Y
     3fc:	f9 81       	ldd	r31, Y+1	; 0x01
     3fe:	30 81       	ld	r19, Z
     400:	ad 01       	movw	r20, r26
     402:	0a 80       	ldd	r0, Y+2	; 0x02
     404:	02 c0       	rjmp	.+4      	; 0x40a <__EEPROM_REGION_LENGTH__+0xa>
     406:	44 0f       	add	r20, r20
     408:	55 1f       	adc	r21, r21
     40a:	0a 94       	dec	r0
     40c:	e2 f7       	brpl	.-8      	; 0x406 <__EEPROM_REGION_LENGTH__+0x6>
     40e:	24 2f       	mov	r18, r20
     410:	20 95       	com	r18
     412:	23 23       	and	r18, r19
     414:	20 83       	st	Z, r18
     416:	01 96       	adiw	r24, 0x01	; 1
     418:	dd cf       	rjmp	.-70     	; 0x3d4 <_ZN9LedDriver6TurnOnERKfb+0xac>
     41a:	8a e1       	ldi	r24, 0x1A	; 26
     41c:	8a 95       	dec	r24
     41e:	f1 f7       	brne	.-4      	; 0x41c <__EEPROM_REGION_LENGTH__+0x1c>
     420:	00 c0       	rjmp	.+0      	; 0x422 <__EEPROM_REGION_LENGTH__+0x22>
     422:	e8 81       	ld	r30, Y
     424:	f9 81       	ldd	r31, Y+1	; 0x01
     426:	20 81       	ld	r18, Z
     428:	81 e0       	ldi	r24, 0x01	; 1
     42a:	90 e0       	ldi	r25, 0x00	; 0
     42c:	0a 80       	ldd	r0, Y+2	; 0x02
     42e:	02 c0       	rjmp	.+4      	; 0x434 <__EEPROM_REGION_LENGTH__+0x34>
     430:	88 0f       	add	r24, r24
     432:	99 1f       	adc	r25, r25
     434:	0a 94       	dec	r0
     436:	e2 f7       	brpl	.-8      	; 0x430 <__EEPROM_REGION_LENGTH__+0x30>
     438:	82 2b       	or	r24, r18
     43a:	80 83       	st	Z, r24
     43c:	e7 e0       	ldi	r30, 0x07	; 7
     43e:	f2 e0       	ldi	r31, 0x02	; 2
     440:	31 97       	sbiw	r30, 0x01	; 1
     442:	f1 f7       	brne	.-4      	; 0x440 <__EEPROM_REGION_LENGTH__+0x40>
     444:	00 c0       	rjmp	.+0      	; 0x446 <__EEPROM_REGION_LENGTH__+0x46>
     446:	00 00       	nop
     448:	df 91       	pop	r29
     44a:	cf 91       	pop	r28
     44c:	1f 91       	pop	r17
     44e:	ff 90       	pop	r15
     450:	ef 90       	pop	r14
     452:	df 90       	pop	r13
     454:	cf 90       	pop	r12
     456:	08 95       	ret

00000458 <_ZN9LedDriver7TurnOffEv>:
     458:	dc 01       	movw	r26, r24
     45a:	ed 91       	ld	r30, X+
     45c:	fc 91       	ld	r31, X
     45e:	11 97       	sbiw	r26, 0x01	; 1
     460:	40 81       	ld	r20, Z
     462:	21 e0       	ldi	r18, 0x01	; 1
     464:	30 e0       	ldi	r19, 0x00	; 0
     466:	b9 01       	movw	r22, r18
     468:	12 96       	adiw	r26, 0x02	; 2
     46a:	0c 90       	ld	r0, X
     46c:	02 c0       	rjmp	.+4      	; 0x472 <_ZN9LedDriver7TurnOffEv+0x1a>
     46e:	66 0f       	add	r22, r22
     470:	77 1f       	adc	r23, r23
     472:	0a 94       	dec	r0
     474:	e2 f7       	brpl	.-8      	; 0x46e <_ZN9LedDriver7TurnOffEv+0x16>
     476:	cb 01       	movw	r24, r22
     478:	80 95       	com	r24
     47a:	84 23       	and	r24, r20
     47c:	80 83       	st	Z, r24
     47e:	08 95       	ret

00000480 <_ZN9LedDriverD1Ev>:
     480:	08 95       	ret

00000482 <_ZN12RecipeAccessC1Ev>:
     482:	08 95       	ret

00000484 <_ZN12RecipeAccessD1Ev>:
     484:	08 95       	ret

00000486 <_ZN12RecipeAccess10InitializeEv>:
     486:	4f e1       	ldi	r20, 0x1F	; 31
     488:	50 e0       	ldi	r21, 0x00	; 0
     48a:	60 e0       	ldi	r22, 0x00	; 0
     48c:	70 e0       	ldi	r23, 0x00	; 0
     48e:	0c 94 ce 1b 	jmp	0x379c	; 0x379c <eeprom_read_block>

00000492 <_ZN12RecipeAccess10SaveRecipeEv>:
     492:	4f e1       	ldi	r20, 0x1F	; 31
     494:	50 e0       	ldi	r21, 0x00	; 0
     496:	60 e0       	ldi	r22, 0x00	; 0
     498:	70 e0       	ldi	r23, 0x00	; 0
     49a:	0c 94 de 1b 	jmp	0x37bc	; 0x37bc <eeprom_update_block>

0000049e <_ZN12RecipeAccess25UpdateInMemoryBoardRecipeERK11BoardRecipe>:
     49e:	fc 01       	movw	r30, r24
     4a0:	db 01       	movw	r26, r22
     4a2:	4d 91       	ld	r20, X+
     4a4:	5d 91       	ld	r21, X+
     4a6:	6d 91       	ld	r22, X+
     4a8:	7c 91       	ld	r23, X
     4aa:	13 97       	sbiw	r26, 0x03	; 3
     4ac:	40 83       	st	Z, r20
     4ae:	51 83       	std	Z+1, r21	; 0x01
     4b0:	62 83       	std	Z+2, r22	; 0x02
     4b2:	73 83       	std	Z+3, r23	; 0x03
     4b4:	14 96       	adiw	r26, 0x04	; 4
     4b6:	4d 91       	ld	r20, X+
     4b8:	5d 91       	ld	r21, X+
     4ba:	6d 91       	ld	r22, X+
     4bc:	7c 91       	ld	r23, X
     4be:	17 97       	sbiw	r26, 0x07	; 7
     4c0:	44 83       	std	Z+4, r20	; 0x04
     4c2:	55 83       	std	Z+5, r21	; 0x05
     4c4:	66 83       	std	Z+6, r22	; 0x06
     4c6:	77 83       	std	Z+7, r23	; 0x07
     4c8:	18 96       	adiw	r26, 0x08	; 8
     4ca:	4d 91       	ld	r20, X+
     4cc:	5d 91       	ld	r21, X+
     4ce:	6d 91       	ld	r22, X+
     4d0:	7c 91       	ld	r23, X
     4d2:	1b 97       	sbiw	r26, 0x0b	; 11
     4d4:	40 87       	std	Z+8, r20	; 0x08
     4d6:	51 87       	std	Z+9, r21	; 0x09
     4d8:	62 87       	std	Z+10, r22	; 0x0a
     4da:	73 87       	std	Z+11, r23	; 0x0b
     4dc:	1c 96       	adiw	r26, 0x0c	; 12
     4de:	8c 91       	ld	r24, X
     4e0:	1c 97       	sbiw	r26, 0x0c	; 12
     4e2:	84 87       	std	Z+12, r24	; 0x0c
     4e4:	1d 96       	adiw	r26, 0x0d	; 13
     4e6:	4d 91       	ld	r20, X+
     4e8:	5d 91       	ld	r21, X+
     4ea:	6d 91       	ld	r22, X+
     4ec:	7c 91       	ld	r23, X
     4ee:	50 97       	sbiw	r26, 0x10	; 16
     4f0:	45 87       	std	Z+13, r20	; 0x0d
     4f2:	56 87       	std	Z+14, r21	; 0x0e
     4f4:	67 87       	std	Z+15, r22	; 0x0f
     4f6:	70 8b       	std	Z+16, r23	; 0x10
     4f8:	51 96       	adiw	r26, 0x11	; 17
     4fa:	4d 91       	ld	r20, X+
     4fc:	5d 91       	ld	r21, X+
     4fe:	6d 91       	ld	r22, X+
     500:	7c 91       	ld	r23, X
     502:	54 97       	sbiw	r26, 0x14	; 20
     504:	41 8b       	std	Z+17, r20	; 0x11
     506:	52 8b       	std	Z+18, r21	; 0x12
     508:	63 8b       	std	Z+19, r22	; 0x13
     50a:	74 8b       	std	Z+20, r23	; 0x14
     50c:	55 96       	adiw	r26, 0x15	; 21
     50e:	8c 91       	ld	r24, X
     510:	55 97       	sbiw	r26, 0x15	; 21
     512:	85 8b       	std	Z+21, r24	; 0x15
     514:	56 96       	adiw	r26, 0x16	; 22
     516:	4d 91       	ld	r20, X+
     518:	5d 91       	ld	r21, X+
     51a:	6d 91       	ld	r22, X+
     51c:	7c 91       	ld	r23, X
     51e:	59 97       	sbiw	r26, 0x19	; 25
     520:	46 8b       	std	Z+22, r20	; 0x16
     522:	57 8b       	std	Z+23, r21	; 0x17
     524:	60 8f       	std	Z+24, r22	; 0x18
     526:	71 8f       	std	Z+25, r23	; 0x19
     528:	5a 96       	adiw	r26, 0x1a	; 26
     52a:	4d 91       	ld	r20, X+
     52c:	5d 91       	ld	r21, X+
     52e:	6d 91       	ld	r22, X+
     530:	7c 91       	ld	r23, X
     532:	5d 97       	sbiw	r26, 0x1d	; 29
     534:	42 8f       	std	Z+26, r20	; 0x1a
     536:	53 8f       	std	Z+27, r21	; 0x1b
     538:	64 8f       	std	Z+28, r22	; 0x1c
     53a:	75 8f       	std	Z+29, r23	; 0x1d
     53c:	5e 96       	adiw	r26, 0x1e	; 30
     53e:	8c 91       	ld	r24, X
     540:	86 8f       	std	Z+30, r24	; 0x1e
     542:	08 95       	ret

00000544 <_ZN12RecipeAccess22GetInMemoryBoardRecipeEv>:
     544:	fc 01       	movw	r30, r24
     546:	db 01       	movw	r26, r22
     548:	4d 91       	ld	r20, X+
     54a:	5d 91       	ld	r21, X+
     54c:	6d 91       	ld	r22, X+
     54e:	7c 91       	ld	r23, X
     550:	13 97       	sbiw	r26, 0x03	; 3
     552:	40 83       	st	Z, r20
     554:	51 83       	std	Z+1, r21	; 0x01
     556:	62 83       	std	Z+2, r22	; 0x02
     558:	73 83       	std	Z+3, r23	; 0x03
     55a:	14 96       	adiw	r26, 0x04	; 4
     55c:	4d 91       	ld	r20, X+
     55e:	5d 91       	ld	r21, X+
     560:	6d 91       	ld	r22, X+
     562:	7c 91       	ld	r23, X
     564:	17 97       	sbiw	r26, 0x07	; 7
     566:	44 83       	std	Z+4, r20	; 0x04
     568:	55 83       	std	Z+5, r21	; 0x05
     56a:	66 83       	std	Z+6, r22	; 0x06
     56c:	77 83       	std	Z+7, r23	; 0x07
     56e:	18 96       	adiw	r26, 0x08	; 8
     570:	4d 91       	ld	r20, X+
     572:	5d 91       	ld	r21, X+
     574:	6d 91       	ld	r22, X+
     576:	7c 91       	ld	r23, X
     578:	1b 97       	sbiw	r26, 0x0b	; 11
     57a:	40 87       	std	Z+8, r20	; 0x08
     57c:	51 87       	std	Z+9, r21	; 0x09
     57e:	62 87       	std	Z+10, r22	; 0x0a
     580:	73 87       	std	Z+11, r23	; 0x0b
     582:	1c 96       	adiw	r26, 0x0c	; 12
     584:	8c 91       	ld	r24, X
     586:	1c 97       	sbiw	r26, 0x0c	; 12
     588:	84 87       	std	Z+12, r24	; 0x0c
     58a:	1d 96       	adiw	r26, 0x0d	; 13
     58c:	4d 91       	ld	r20, X+
     58e:	5d 91       	ld	r21, X+
     590:	6d 91       	ld	r22, X+
     592:	7c 91       	ld	r23, X
     594:	50 97       	sbiw	r26, 0x10	; 16
     596:	45 87       	std	Z+13, r20	; 0x0d
     598:	56 87       	std	Z+14, r21	; 0x0e
     59a:	67 87       	std	Z+15, r22	; 0x0f
     59c:	70 8b       	std	Z+16, r23	; 0x10
     59e:	51 96       	adiw	r26, 0x11	; 17
     5a0:	4d 91       	ld	r20, X+
     5a2:	5d 91       	ld	r21, X+
     5a4:	6d 91       	ld	r22, X+
     5a6:	7c 91       	ld	r23, X
     5a8:	54 97       	sbiw	r26, 0x14	; 20
     5aa:	41 8b       	std	Z+17, r20	; 0x11
     5ac:	52 8b       	std	Z+18, r21	; 0x12
     5ae:	63 8b       	std	Z+19, r22	; 0x13
     5b0:	74 8b       	std	Z+20, r23	; 0x14
     5b2:	55 96       	adiw	r26, 0x15	; 21
     5b4:	8c 91       	ld	r24, X
     5b6:	55 97       	sbiw	r26, 0x15	; 21
     5b8:	85 8b       	std	Z+21, r24	; 0x15
     5ba:	56 96       	adiw	r26, 0x16	; 22
     5bc:	4d 91       	ld	r20, X+
     5be:	5d 91       	ld	r21, X+
     5c0:	6d 91       	ld	r22, X+
     5c2:	7c 91       	ld	r23, X
     5c4:	59 97       	sbiw	r26, 0x19	; 25
     5c6:	46 8b       	std	Z+22, r20	; 0x16
     5c8:	57 8b       	std	Z+23, r21	; 0x17
     5ca:	60 8f       	std	Z+24, r22	; 0x18
     5cc:	71 8f       	std	Z+25, r23	; 0x19
     5ce:	5a 96       	adiw	r26, 0x1a	; 26
     5d0:	4d 91       	ld	r20, X+
     5d2:	5d 91       	ld	r21, X+
     5d4:	6d 91       	ld	r22, X+
     5d6:	7c 91       	ld	r23, X
     5d8:	5d 97       	sbiw	r26, 0x1d	; 29
     5da:	42 8f       	std	Z+26, r20	; 0x1a
     5dc:	53 8f       	std	Z+27, r21	; 0x1b
     5de:	64 8f       	std	Z+28, r22	; 0x1c
     5e0:	75 8f       	std	Z+29, r23	; 0x1d
     5e2:	5e 96       	adiw	r26, 0x1e	; 30
     5e4:	8c 91       	ld	r24, X
     5e6:	86 8f       	std	Z+30, r24	; 0x1e
     5e8:	cf 01       	movw	r24, r30
     5ea:	08 95       	ret

000005ec <_ZN9RunLoggerC1Ev>:
     5ec:	fc 01       	movw	r30, r24
     5ee:	10 82       	st	Z, r1
     5f0:	11 82       	std	Z+1, r1	; 0x01
     5f2:	12 82       	std	Z+2, r1	; 0x02
     5f4:	13 82       	std	Z+3, r1	; 0x03
     5f6:	08 95       	ret

000005f8 <_ZN9RunLogger10InitializeEv>:
     5f8:	fc 01       	movw	r30, r24
     5fa:	10 82       	st	Z, r1
     5fc:	11 82       	std	Z+1, r1	; 0x01
     5fe:	12 82       	std	Z+2, r1	; 0x02
     600:	13 82       	std	Z+3, r1	; 0x03
     602:	44 e0       	ldi	r20, 0x04	; 4
     604:	50 e0       	ldi	r21, 0x00	; 0
     606:	6f e1       	ldi	r22, 0x1F	; 31
     608:	70 e0       	ldi	r23, 0x00	; 0
     60a:	0c 94 00 1c 	jmp	0x3800	; 0x3800 <eeprom_write_block>

0000060e <_ZN9RunLogger12GetStoredLogEv>:
     60e:	0f 93       	push	r16
     610:	1f 93       	push	r17
     612:	cf 93       	push	r28
     614:	df 93       	push	r29
     616:	ec 01       	movw	r28, r24
     618:	8b 01       	movw	r16, r22
     61a:	44 e0       	ldi	r20, 0x04	; 4
     61c:	50 e0       	ldi	r21, 0x00	; 0
     61e:	6f e1       	ldi	r22, 0x1F	; 31
     620:	70 e0       	ldi	r23, 0x00	; 0
     622:	c8 01       	movw	r24, r16
     624:	0e 94 ce 1b 	call	0x379c	; 0x379c <eeprom_read_block>
     628:	f8 01       	movw	r30, r16
     62a:	80 81       	ld	r24, Z
     62c:	88 83       	st	Y, r24
     62e:	81 81       	ldd	r24, Z+1	; 0x01
     630:	89 83       	std	Y+1, r24	; 0x01
     632:	82 81       	ldd	r24, Z+2	; 0x02
     634:	8a 83       	std	Y+2, r24	; 0x02
     636:	83 81       	ldd	r24, Z+3	; 0x03
     638:	8b 83       	std	Y+3, r24	; 0x03
     63a:	ce 01       	movw	r24, r28
     63c:	df 91       	pop	r29
     63e:	cf 91       	pop	r28
     640:	1f 91       	pop	r17
     642:	0f 91       	pop	r16
     644:	08 95       	ret

00000646 <_ZN9RunLogger19IncrementBoardCycleEv>:
     646:	fc 01       	movw	r30, r24
     648:	20 81       	ld	r18, Z
     64a:	2f 5f       	subi	r18, 0xFF	; 255
     64c:	20 83       	st	Z, r18
     64e:	41 e0       	ldi	r20, 0x01	; 1
     650:	50 e0       	ldi	r21, 0x00	; 0
     652:	6f e1       	ldi	r22, 0x1F	; 31
     654:	70 e0       	ldi	r23, 0x00	; 0
     656:	0c 94 de 1b 	jmp	0x37bc	; 0x37bc <eeprom_update_block>

0000065a <_ZN9RunLogger18IncrementLedXCycleEi>:
     65a:	fc 01       	movw	r30, r24
     65c:	6f 5f       	subi	r22, 0xFF	; 255
     65e:	7f 4f       	sbci	r23, 0xFF	; 255
     660:	62 30       	cpi	r22, 0x02	; 2
     662:	71 05       	cpc	r23, r1
     664:	81 f0       	breq	.+32     	; 0x686 <_ZN9RunLogger18IncrementLedXCycleEi+0x2c>
     666:	63 30       	cpi	r22, 0x03	; 3
     668:	71 05       	cpc	r23, r1
     66a:	b9 f0       	breq	.+46     	; 0x69a <_ZN9RunLogger18IncrementLedXCycleEi+0x40>
     66c:	61 30       	cpi	r22, 0x01	; 1
     66e:	71 05       	cpc	r23, r1
     670:	f9 f4       	brne	.+62     	; 0x6b0 <_ZN9RunLogger18IncrementLedXCycleEi+0x56>
     672:	81 81       	ldd	r24, Z+1	; 0x01
     674:	8f 5f       	subi	r24, 0xFF	; 255
     676:	81 83       	std	Z+1, r24	; 0x01
     678:	41 e0       	ldi	r20, 0x01	; 1
     67a:	50 e0       	ldi	r21, 0x00	; 0
     67c:	60 e2       	ldi	r22, 0x20	; 32
     67e:	70 e0       	ldi	r23, 0x00	; 0
     680:	cf 01       	movw	r24, r30
     682:	01 96       	adiw	r24, 0x01	; 1
     684:	13 c0       	rjmp	.+38     	; 0x6ac <_ZN9RunLogger18IncrementLedXCycleEi+0x52>
     686:	82 81       	ldd	r24, Z+2	; 0x02
     688:	8f 5f       	subi	r24, 0xFF	; 255
     68a:	82 83       	std	Z+2, r24	; 0x02
     68c:	41 e0       	ldi	r20, 0x01	; 1
     68e:	50 e0       	ldi	r21, 0x00	; 0
     690:	61 e2       	ldi	r22, 0x21	; 33
     692:	70 e0       	ldi	r23, 0x00	; 0
     694:	cf 01       	movw	r24, r30
     696:	02 96       	adiw	r24, 0x02	; 2
     698:	09 c0       	rjmp	.+18     	; 0x6ac <_ZN9RunLogger18IncrementLedXCycleEi+0x52>
     69a:	83 81       	ldd	r24, Z+3	; 0x03
     69c:	8f 5f       	subi	r24, 0xFF	; 255
     69e:	83 83       	std	Z+3, r24	; 0x03
     6a0:	41 e0       	ldi	r20, 0x01	; 1
     6a2:	50 e0       	ldi	r21, 0x00	; 0
     6a4:	62 e2       	ldi	r22, 0x22	; 34
     6a6:	70 e0       	ldi	r23, 0x00	; 0
     6a8:	cf 01       	movw	r24, r30
     6aa:	03 96       	adiw	r24, 0x03	; 3
     6ac:	0c 94 de 1b 	jmp	0x37bc	; 0x37bc <eeprom_update_block>
     6b0:	08 95       	ret

000006b2 <_ZN9RunLoggerD1Ev>:
     6b2:	08 95       	ret

000006b4 <_GLOBAL__sub_I_eeprom_log>:
     6b4:	ef e1       	ldi	r30, 0x1F	; 31
     6b6:	f0 e0       	ldi	r31, 0x00	; 0
     6b8:	10 82       	st	Z, r1
     6ba:	11 82       	std	Z+1, r1	; 0x01
     6bc:	12 82       	std	Z+2, r1	; 0x02
     6be:	13 82       	std	Z+3, r1	; 0x03
     6c0:	08 95       	ret

000006c2 <_ZN11BoardRecipe12SetLedRecipeERK9LedRecipe>:
     6c2:	cf 93       	push	r28
     6c4:	df 93       	push	r29
     6c6:	ec 01       	movw	r28, r24
     6c8:	fb 01       	movw	r30, r22
     6ca:	80 81       	ld	r24, Z
     6cc:	82 30       	cpi	r24, 0x02	; 2
     6ce:	e9 f0       	breq	.+58     	; 0x70a <_ZN11BoardRecipe12SetLedRecipeERK9LedRecipe+0x48>
     6d0:	83 30       	cpi	r24, 0x03	; 3
     6d2:	99 f1       	breq	.+102    	; 0x73a <_ZN11BoardRecipe12SetLedRecipeERK9LedRecipe+0x78>
     6d4:	81 30       	cpi	r24, 0x01	; 1
     6d6:	09 f0       	breq	.+2      	; 0x6da <_ZN11BoardRecipe12SetLedRecipeERK9LedRecipe+0x18>
     6d8:	47 c0       	rjmp	.+142    	; 0x768 <_ZN11BoardRecipe12SetLedRecipeERK9LedRecipe+0xa6>
     6da:	81 81       	ldd	r24, Z+1	; 0x01
     6dc:	92 81       	ldd	r25, Z+2	; 0x02
     6de:	a3 81       	ldd	r26, Z+3	; 0x03
     6e0:	b4 81       	ldd	r27, Z+4	; 0x04
     6e2:	8c 83       	std	Y+4, r24	; 0x04
     6e4:	9d 83       	std	Y+5, r25	; 0x05
     6e6:	ae 83       	std	Y+6, r26	; 0x06
     6e8:	bf 83       	std	Y+7, r27	; 0x07
     6ea:	85 81       	ldd	r24, Z+5	; 0x05
     6ec:	96 81       	ldd	r25, Z+6	; 0x06
     6ee:	a7 81       	ldd	r26, Z+7	; 0x07
     6f0:	b0 85       	ldd	r27, Z+8	; 0x08
     6f2:	88 87       	std	Y+8, r24	; 0x08
     6f4:	99 87       	std	Y+9, r25	; 0x09
     6f6:	aa 87       	std	Y+10, r26	; 0x0a
     6f8:	bb 87       	std	Y+11, r27	; 0x0b
     6fa:	61 85       	ldd	r22, Z+9	; 0x09
     6fc:	72 85       	ldd	r23, Z+10	; 0x0a
     6fe:	83 85       	ldd	r24, Z+11	; 0x0b
     700:	94 85       	ldd	r25, Z+12	; 0x0c
     702:	0e 94 93 14 	call	0x2926	; 0x2926 <__fixunssfsi>
     706:	6c 87       	std	Y+12, r22	; 0x0c
     708:	2f c0       	rjmp	.+94     	; 0x768 <_ZN11BoardRecipe12SetLedRecipeERK9LedRecipe+0xa6>
     70a:	81 81       	ldd	r24, Z+1	; 0x01
     70c:	92 81       	ldd	r25, Z+2	; 0x02
     70e:	a3 81       	ldd	r26, Z+3	; 0x03
     710:	b4 81       	ldd	r27, Z+4	; 0x04
     712:	8d 87       	std	Y+13, r24	; 0x0d
     714:	9e 87       	std	Y+14, r25	; 0x0e
     716:	af 87       	std	Y+15, r26	; 0x0f
     718:	b8 8b       	std	Y+16, r27	; 0x10
     71a:	85 81       	ldd	r24, Z+5	; 0x05
     71c:	96 81       	ldd	r25, Z+6	; 0x06
     71e:	a7 81       	ldd	r26, Z+7	; 0x07
     720:	b0 85       	ldd	r27, Z+8	; 0x08
     722:	89 8b       	std	Y+17, r24	; 0x11
     724:	9a 8b       	std	Y+18, r25	; 0x12
     726:	ab 8b       	std	Y+19, r26	; 0x13
     728:	bc 8b       	std	Y+20, r27	; 0x14
     72a:	61 85       	ldd	r22, Z+9	; 0x09
     72c:	72 85       	ldd	r23, Z+10	; 0x0a
     72e:	83 85       	ldd	r24, Z+11	; 0x0b
     730:	94 85       	ldd	r25, Z+12	; 0x0c
     732:	0e 94 93 14 	call	0x2926	; 0x2926 <__fixunssfsi>
     736:	6d 8b       	std	Y+21, r22	; 0x15
     738:	17 c0       	rjmp	.+46     	; 0x768 <_ZN11BoardRecipe12SetLedRecipeERK9LedRecipe+0xa6>
     73a:	81 81       	ldd	r24, Z+1	; 0x01
     73c:	92 81       	ldd	r25, Z+2	; 0x02
     73e:	a3 81       	ldd	r26, Z+3	; 0x03
     740:	b4 81       	ldd	r27, Z+4	; 0x04
     742:	8e 8b       	std	Y+22, r24	; 0x16
     744:	9f 8b       	std	Y+23, r25	; 0x17
     746:	a8 8f       	std	Y+24, r26	; 0x18
     748:	b9 8f       	std	Y+25, r27	; 0x19
     74a:	85 81       	ldd	r24, Z+5	; 0x05
     74c:	96 81       	ldd	r25, Z+6	; 0x06
     74e:	a7 81       	ldd	r26, Z+7	; 0x07
     750:	b0 85       	ldd	r27, Z+8	; 0x08
     752:	8a 8f       	std	Y+26, r24	; 0x1a
     754:	9b 8f       	std	Y+27, r25	; 0x1b
     756:	ac 8f       	std	Y+28, r26	; 0x1c
     758:	bd 8f       	std	Y+29, r27	; 0x1d
     75a:	61 85       	ldd	r22, Z+9	; 0x09
     75c:	72 85       	ldd	r23, Z+10	; 0x0a
     75e:	83 85       	ldd	r24, Z+11	; 0x0b
     760:	94 85       	ldd	r25, Z+12	; 0x0c
     762:	0e 94 93 14 	call	0x2926	; 0x2926 <__fixunssfsi>
     766:	6e 8f       	std	Y+30, r22	; 0x1e
     768:	df 91       	pop	r29
     76a:	cf 91       	pop	r28
     76c:	08 95       	ret

0000076e <main>:
     76e:	8c ea       	ldi	r24, 0xAC	; 172
     770:	91 e0       	ldi	r25, 0x01	; 1
     772:	0e 94 7b 05 	call	0xaf6	; 0xaf6 <_ZN10Controller10InitializeEv>
     776:	8c ea       	ldi	r24, 0xAC	; 172
     778:	91 e0       	ldi	r25, 0x01	; 1
     77a:	0e 94 4c 08 	call	0x1098	; 0x1098 <_ZN10Controller5StartEv>
     77e:	8c ea       	ldi	r24, 0xAC	; 172
     780:	91 e0       	ldi	r25, 0x01	; 1
     782:	0e 94 63 08 	call	0x10c6	; 0x10c6 <_ZN10Controller3RunEv>
     786:	81 e0       	ldi	r24, 0x01	; 1
     788:	90 e0       	ldi	r25, 0x00	; 0
     78a:	08 95       	ret

0000078c <_GLOBAL__sub_I_controller>:
     78c:	cf 93       	push	r28
     78e:	df 93       	push	r29
     790:	8c ea       	ldi	r24, 0xAC	; 172
     792:	91 e0       	ldi	r25, 0x01	; 1
     794:	0e 94 a6 04 	call	0x94c	; 0x94c <_ZN10ControllerC1Ev>
     798:	ca e6       	ldi	r28, 0x6A	; 106
     79a:	d1 e0       	ldi	r29, 0x01	; 1
     79c:	ce 01       	movw	r24, r28
     79e:	0e 94 b8 10 	call	0x2170	; 0x2170 <_ZN6SwitchC1Ev>
     7a2:	2b 96       	adiw	r28, 0x0b	; 11
     7a4:	81 e0       	ldi	r24, 0x01	; 1
     7a6:	cc 3a       	cpi	r28, 0xAC	; 172
     7a8:	d8 07       	cpc	r29, r24
     7aa:	c1 f7       	brne	.-16     	; 0x79c <_GLOBAL__sub_I_controller+0x10>
     7ac:	df 91       	pop	r29
     7ae:	cf 91       	pop	r28
     7b0:	08 95       	ret

000007b2 <_GLOBAL__sub_D_controller>:
     7b2:	cf 93       	push	r28
     7b4:	df 93       	push	r29
     7b6:	cc ea       	ldi	r28, 0xAC	; 172
     7b8:	d1 e0       	ldi	r29, 0x01	; 1
     7ba:	2b 97       	sbiw	r28, 0x0b	; 11
     7bc:	ce 01       	movw	r24, r28
     7be:	0e 94 ee 10 	call	0x21dc	; 0x21dc <_ZN6SwitchD1Ev>
     7c2:	81 e0       	ldi	r24, 0x01	; 1
     7c4:	ca 36       	cpi	r28, 0x6A	; 106
     7c6:	d8 07       	cpc	r29, r24
     7c8:	c1 f7       	brne	.-16     	; 0x7ba <_GLOBAL__sub_D_controller+0x8>
     7ca:	8c ea       	ldi	r24, 0xAC	; 172
     7cc:	91 e0       	ldi	r25, 0x01	; 1
     7ce:	df 91       	pop	r29
     7d0:	cf 91       	pop	r28
     7d2:	0c 94 e5 04 	jmp	0x9ca	; 0x9ca <_ZN10ControllerD1Ev>

000007d6 <_ZN10Controller13DisplayLED1OnEv>:
     7d6:	85 b1       	in	r24, 0x05	; 5
     7d8:	80 67       	ori	r24, 0x70	; 112
     7da:	85 b9       	out	0x05, r24	; 5
     7dc:	2e 98       	cbi	0x05, 6	; 5
     7de:	08 95       	ret

000007e0 <_ZN10Controller13DisplayLED2OnEv>:
     7e0:	85 b1       	in	r24, 0x05	; 5
     7e2:	80 67       	ori	r24, 0x70	; 112
     7e4:	85 b9       	out	0x05, r24	; 5
     7e6:	2d 98       	cbi	0x05, 5	; 5
     7e8:	08 95       	ret

000007ea <_ZN10Controller13DisplayLED3OnEv>:
     7ea:	85 b1       	in	r24, 0x05	; 5
     7ec:	80 67       	ori	r24, 0x70	; 112
     7ee:	85 b9       	out	0x05, r24	; 5
     7f0:	2c 98       	cbi	0x05, 4	; 5
     7f2:	08 95       	ret

000007f4 <_ZN10Controller13RunManualLed1Ev>:
     7f4:	0c 94 ef 0f 	jmp	0x1fde	; 0x1fde <_ZN13LedController5CheckEv>

000007f8 <_ZN10Controller13RunManualLed2Ev>:
     7f8:	80 5c       	subi	r24, 0xC0	; 192
     7fa:	9f 4f       	sbci	r25, 0xFF	; 255
     7fc:	0c 94 ef 0f 	jmp	0x1fde	; 0x1fde <_ZN13LedController5CheckEv>

00000800 <_ZN10Controller13RunManualLed3Ev>:
     800:	80 58       	subi	r24, 0x80	; 128
     802:	9f 4f       	sbci	r25, 0xFF	; 255
     804:	0c 94 ef 0f 	jmp	0x1fde	; 0x1fde <_ZN13LedController5CheckEv>

00000808 <_ZN9LedRecipeC1Ev>:
     808:	fc 01       	movw	r30, r24
     80a:	81 e0       	ldi	r24, 0x01	; 1
     80c:	80 83       	st	Z, r24
     80e:	81 e0       	ldi	r24, 0x01	; 1
     810:	90 e0       	ldi	r25, 0x00	; 0
     812:	a0 e0       	ldi	r26, 0x00	; 0
     814:	b0 e0       	ldi	r27, 0x00	; 0
     816:	81 83       	std	Z+1, r24	; 0x01
     818:	92 83       	std	Z+2, r25	; 0x02
     81a:	a3 83       	std	Z+3, r26	; 0x03
     81c:	b4 83       	std	Z+4, r27	; 0x04
     81e:	85 83       	std	Z+5, r24	; 0x05
     820:	96 83       	std	Z+6, r25	; 0x06
     822:	a7 83       	std	Z+7, r26	; 0x07
     824:	b0 87       	std	Z+8, r27	; 0x08
     826:	80 e0       	ldi	r24, 0x00	; 0
     828:	90 e0       	ldi	r25, 0x00	; 0
     82a:	a0 e8       	ldi	r26, 0x80	; 128
     82c:	bf e3       	ldi	r27, 0x3F	; 63
     82e:	81 87       	std	Z+9, r24	; 0x09
     830:	92 87       	std	Z+10, r25	; 0x0a
     832:	a3 87       	std	Z+11, r26	; 0x0b
     834:	b4 87       	std	Z+12, r27	; 0x0c
     836:	08 95       	ret

00000838 <_ZN11BoardRecipe12GetLedRecipeE3LED>:
     838:	4f 92       	push	r4
     83a:	5f 92       	push	r5
     83c:	6f 92       	push	r6
     83e:	7f 92       	push	r7
     840:	8f 92       	push	r8
     842:	9f 92       	push	r9
     844:	af 92       	push	r10
     846:	bf 92       	push	r11
     848:	df 92       	push	r13
     84a:	ef 92       	push	r14
     84c:	ff 92       	push	r15
     84e:	0f 93       	push	r16
     850:	1f 93       	push	r17
     852:	cf 93       	push	r28
     854:	df 93       	push	r29
     856:	cd b7       	in	r28, 0x3d	; 61
     858:	de b7       	in	r29, 0x3e	; 62
     85a:	2d 97       	sbiw	r28, 0x0d	; 13
     85c:	0f b6       	in	r0, 0x3f	; 63
     85e:	f8 94       	cli
     860:	de bf       	out	0x3e, r29	; 62
     862:	0f be       	out	0x3f, r0	; 63
     864:	cd bf       	out	0x3d, r28	; 61
     866:	8c 01       	movw	r16, r24
     868:	7b 01       	movw	r14, r22
     86a:	d4 2e       	mov	r13, r20
     86c:	82 e0       	ldi	r24, 0x02	; 2
     86e:	48 17       	cp	r20, r24
     870:	a9 f0       	breq	.+42     	; 0x89c <_ZN11BoardRecipe12GetLedRecipeE3LED+0x64>
     872:	e3 e0       	ldi	r30, 0x03	; 3
     874:	4e 17       	cp	r20, r30
     876:	09 f1       	breq	.+66     	; 0x8ba <_ZN11BoardRecipe12GetLedRecipeE3LED+0x82>
     878:	f1 e0       	ldi	r31, 0x01	; 1
     87a:	ce 01       	movw	r24, r28
     87c:	01 96       	adiw	r24, 0x01	; 1
     87e:	4f 13       	cpse	r20, r31
     880:	3e c0       	rjmp	.+124    	; 0x8fe <_ZN11BoardRecipe12GetLedRecipeE3LED+0xc6>
     882:	0e 94 04 04 	call	0x808	; 0x808 <_ZN9LedRecipeC1Ev>
     886:	f7 01       	movw	r30, r14
     888:	80 84       	ldd	r8, Z+8	; 0x08
     88a:	91 84       	ldd	r9, Z+9	; 0x09
     88c:	a2 84       	ldd	r10, Z+10	; 0x0a
     88e:	b3 84       	ldd	r11, Z+11	; 0x0b
     890:	44 80       	ldd	r4, Z+4	; 0x04
     892:	55 80       	ldd	r5, Z+5	; 0x05
     894:	66 80       	ldd	r6, Z+6	; 0x06
     896:	77 80       	ldd	r7, Z+7	; 0x07
     898:	64 85       	ldd	r22, Z+12	; 0x0c
     89a:	1d c0       	rjmp	.+58     	; 0x8d6 <_ZN11BoardRecipe12GetLedRecipeE3LED+0x9e>
     89c:	ce 01       	movw	r24, r28
     89e:	01 96       	adiw	r24, 0x01	; 1
     8a0:	0e 94 04 04 	call	0x808	; 0x808 <_ZN9LedRecipeC1Ev>
     8a4:	f7 01       	movw	r30, r14
     8a6:	81 88       	ldd	r8, Z+17	; 0x11
     8a8:	92 88       	ldd	r9, Z+18	; 0x12
     8aa:	a3 88       	ldd	r10, Z+19	; 0x13
     8ac:	b4 88       	ldd	r11, Z+20	; 0x14
     8ae:	45 84       	ldd	r4, Z+13	; 0x0d
     8b0:	56 84       	ldd	r5, Z+14	; 0x0e
     8b2:	67 84       	ldd	r6, Z+15	; 0x0f
     8b4:	70 88       	ldd	r7, Z+16	; 0x10
     8b6:	65 89       	ldd	r22, Z+21	; 0x15
     8b8:	0e c0       	rjmp	.+28     	; 0x8d6 <_ZN11BoardRecipe12GetLedRecipeE3LED+0x9e>
     8ba:	ce 01       	movw	r24, r28
     8bc:	01 96       	adiw	r24, 0x01	; 1
     8be:	0e 94 04 04 	call	0x808	; 0x808 <_ZN9LedRecipeC1Ev>
     8c2:	f7 01       	movw	r30, r14
     8c4:	82 8c       	ldd	r8, Z+26	; 0x1a
     8c6:	93 8c       	ldd	r9, Z+27	; 0x1b
     8c8:	a4 8c       	ldd	r10, Z+28	; 0x1c
     8ca:	b5 8c       	ldd	r11, Z+29	; 0x1d
     8cc:	46 88       	ldd	r4, Z+22	; 0x16
     8ce:	57 88       	ldd	r5, Z+23	; 0x17
     8d0:	60 8c       	ldd	r6, Z+24	; 0x18
     8d2:	71 8c       	ldd	r7, Z+25	; 0x19
     8d4:	66 8d       	ldd	r22, Z+30	; 0x1e
     8d6:	70 e0       	ldi	r23, 0x00	; 0
     8d8:	80 e0       	ldi	r24, 0x00	; 0
     8da:	90 e0       	ldi	r25, 0x00	; 0
     8dc:	0e 94 c2 14 	call	0x2984	; 0x2984 <__floatunsisf>
     8e0:	f8 01       	movw	r30, r16
     8e2:	d0 82       	st	Z, r13
     8e4:	41 82       	std	Z+1, r4	; 0x01
     8e6:	52 82       	std	Z+2, r5	; 0x02
     8e8:	63 82       	std	Z+3, r6	; 0x03
     8ea:	74 82       	std	Z+4, r7	; 0x04
     8ec:	85 82       	std	Z+5, r8	; 0x05
     8ee:	96 82       	std	Z+6, r9	; 0x06
     8f0:	a7 82       	std	Z+7, r10	; 0x07
     8f2:	b0 86       	std	Z+8, r11	; 0x08
     8f4:	61 87       	std	Z+9, r22	; 0x09
     8f6:	72 87       	std	Z+10, r23	; 0x0a
     8f8:	83 87       	std	Z+11, r24	; 0x0b
     8fa:	94 87       	std	Z+12, r25	; 0x0c
     8fc:	10 c0       	rjmp	.+32     	; 0x91e <_ZN11BoardRecipe12GetLedRecipeE3LED+0xe6>
     8fe:	0e 94 04 04 	call	0x808	; 0x808 <_ZN9LedRecipeC1Ev>
     902:	f8 01       	movw	r30, r16
     904:	d0 82       	st	Z, r13
     906:	11 82       	std	Z+1, r1	; 0x01
     908:	12 82       	std	Z+2, r1	; 0x02
     90a:	13 82       	std	Z+3, r1	; 0x03
     90c:	14 82       	std	Z+4, r1	; 0x04
     90e:	15 82       	std	Z+5, r1	; 0x05
     910:	16 82       	std	Z+6, r1	; 0x06
     912:	17 82       	std	Z+7, r1	; 0x07
     914:	10 86       	std	Z+8, r1	; 0x08
     916:	11 86       	std	Z+9, r1	; 0x09
     918:	12 86       	std	Z+10, r1	; 0x0a
     91a:	13 86       	std	Z+11, r1	; 0x0b
     91c:	14 86       	std	Z+12, r1	; 0x0c
     91e:	c8 01       	movw	r24, r16
     920:	2d 96       	adiw	r28, 0x0d	; 13
     922:	0f b6       	in	r0, 0x3f	; 63
     924:	f8 94       	cli
     926:	de bf       	out	0x3e, r29	; 62
     928:	0f be       	out	0x3f, r0	; 63
     92a:	cd bf       	out	0x3d, r28	; 61
     92c:	df 91       	pop	r29
     92e:	cf 91       	pop	r28
     930:	1f 91       	pop	r17
     932:	0f 91       	pop	r16
     934:	ff 90       	pop	r15
     936:	ef 90       	pop	r14
     938:	df 90       	pop	r13
     93a:	bf 90       	pop	r11
     93c:	af 90       	pop	r10
     93e:	9f 90       	pop	r9
     940:	8f 90       	pop	r8
     942:	7f 90       	pop	r7
     944:	6f 90       	pop	r6
     946:	5f 90       	pop	r5
     948:	4f 90       	pop	r4
     94a:	08 95       	ret

0000094c <_ZN10ControllerC1Ev>:
     94c:	ef 92       	push	r14
     94e:	ff 92       	push	r15
     950:	0f 93       	push	r16
     952:	1f 93       	push	r17
     954:	cf 93       	push	r28
     956:	df 93       	push	r29
     958:	ec 01       	movw	r28, r24
     95a:	0e 94 c2 0e 	call	0x1d84	; 0x1d84 <_ZN13LedControllerC1Ev>
     95e:	ce 01       	movw	r24, r28
     960:	80 5c       	subi	r24, 0xC0	; 192
     962:	9f 4f       	sbci	r25, 0xFF	; 255
     964:	0e 94 c2 0e 	call	0x1d84	; 0x1d84 <_ZN13LedControllerC1Ev>
     968:	ce 01       	movw	r24, r28
     96a:	80 58       	subi	r24, 0x80	; 128
     96c:	9f 4f       	sbci	r25, 0xFF	; 255
     96e:	0e 94 c2 0e 	call	0x1d84	; 0x1d84 <_ZN13LedControllerC1Ev>
     972:	8e 01       	movw	r16, r28
     974:	00 54       	subi	r16, 0x40	; 64
     976:	1f 4f       	sbci	r17, 0xFF	; 255
     978:	7e 01       	movw	r14, r28
     97a:	8e ef       	ldi	r24, 0xFE	; 254
     97c:	e8 1a       	sub	r14, r24
     97e:	f8 0a       	sbc	r15, r24
     980:	c8 01       	movw	r24, r16
     982:	0e 94 b8 10 	call	0x2170	; 0x2170 <_ZN6SwitchC1Ev>
     986:	05 5f       	subi	r16, 0xF5	; 245
     988:	1f 4f       	sbci	r17, 0xFF	; 255
     98a:	0e 15       	cp	r16, r14
     98c:	1f 05       	cpc	r17, r15
     98e:	c1 f7       	brne	.-16     	; 0x980 <_ZN10ControllerC1Ev+0x34>
     990:	c8 01       	movw	r24, r16
     992:	0e 94 41 02 	call	0x482	; 0x482 <_ZN12RecipeAccessC1Ev>
     996:	ce 01       	movw	r24, r28
     998:	8f 5d       	subi	r24, 0xDF	; 223
     99a:	9e 4f       	sbci	r25, 0xFE	; 254
     99c:	0e 94 f6 02 	call	0x5ec	; 0x5ec <_ZN9RunLoggerC1Ev>
     9a0:	ce 01       	movw	r24, r28
     9a2:	8b 5d       	subi	r24, 0xDB	; 219
     9a4:	9e 4f       	sbci	r25, 0xFE	; 254
     9a6:	0e 94 4c 11 	call	0x2298	; 0x2298 <_ZN5TimerC1Ev>
     9aa:	ce 01       	movw	r24, r28
     9ac:	80 5b       	subi	r24, 0xB0	; 176
     9ae:	9e 4f       	sbci	r25, 0xFE	; 254
     9b0:	0e 94 ef 10 	call	0x21de	; 0x21de <_ZN4TaskC1Ev>
     9b4:	ce 01       	movw	r24, r28
     9b6:	8c 5a       	subi	r24, 0xAC	; 172
     9b8:	9e 4f       	sbci	r25, 0xFE	; 254
     9ba:	df 91       	pop	r29
     9bc:	cf 91       	pop	r28
     9be:	1f 91       	pop	r17
     9c0:	0f 91       	pop	r16
     9c2:	ff 90       	pop	r15
     9c4:	ef 90       	pop	r14
     9c6:	0c 94 ef 10 	jmp	0x21de	; 0x21de <_ZN4TaskC1Ev>

000009ca <_ZN10ControllerD1Ev>:
     9ca:	ef 92       	push	r14
     9cc:	ff 92       	push	r15
     9ce:	0f 93       	push	r16
     9d0:	1f 93       	push	r17
     9d2:	cf 93       	push	r28
     9d4:	df 93       	push	r29
     9d6:	8c 01       	movw	r16, r24
     9d8:	8c 5a       	subi	r24, 0xAC	; 172
     9da:	9e 4f       	sbci	r25, 0xFE	; 254
     9dc:	0e 94 0b 11 	call	0x2216	; 0x2216 <_ZN4TaskD1Ev>
     9e0:	c8 01       	movw	r24, r16
     9e2:	80 5b       	subi	r24, 0xB0	; 176
     9e4:	9e 4f       	sbci	r25, 0xFE	; 254
     9e6:	0e 94 0b 11 	call	0x2216	; 0x2216 <_ZN4TaskD1Ev>
     9ea:	c8 01       	movw	r24, r16
     9ec:	8b 5d       	subi	r24, 0xDB	; 219
     9ee:	9e 4f       	sbci	r25, 0xFE	; 254
     9f0:	0e 94 97 11 	call	0x232e	; 0x232e <_ZN5TimerD1Ev>
     9f4:	c8 01       	movw	r24, r16
     9f6:	8f 5d       	subi	r24, 0xDF	; 223
     9f8:	9e 4f       	sbci	r25, 0xFE	; 254
     9fa:	0e 94 59 03 	call	0x6b2	; 0x6b2 <_ZN9RunLoggerD1Ev>
     9fe:	78 01       	movw	r14, r16
     a00:	8e ef       	ldi	r24, 0xFE	; 254
     a02:	e8 1a       	sub	r14, r24
     a04:	f8 0a       	sbc	r15, r24
     a06:	c7 01       	movw	r24, r14
     a08:	0e 94 42 02 	call	0x484	; 0x484 <_ZN12RecipeAccessD1Ev>
     a0c:	e8 01       	movw	r28, r16
     a0e:	c0 54       	subi	r28, 0x40	; 64
     a10:	df 4f       	sbci	r29, 0xFF	; 255
     a12:	51 f0       	breq	.+20     	; 0xa28 <__DATA_REGION_LENGTH__+0x28>
     a14:	ec 16       	cp	r14, r28
     a16:	fd 06       	cpc	r15, r29
     a18:	39 f0       	breq	.+14     	; 0xa28 <__DATA_REGION_LENGTH__+0x28>
     a1a:	8b e0       	ldi	r24, 0x0B	; 11
     a1c:	e8 1a       	sub	r14, r24
     a1e:	f1 08       	sbc	r15, r1
     a20:	c7 01       	movw	r24, r14
     a22:	0e 94 ee 10 	call	0x21dc	; 0x21dc <_ZN6SwitchD1Ev>
     a26:	f6 cf       	rjmp	.-20     	; 0xa14 <__DATA_REGION_LENGTH__+0x14>
     a28:	01 15       	cp	r16, r1
     a2a:	11 05       	cpc	r17, r1
     a2c:	49 f0       	breq	.+18     	; 0xa40 <__DATA_REGION_LENGTH__+0x40>
     a2e:	c0 17       	cp	r28, r16
     a30:	d1 07       	cpc	r29, r17
     a32:	31 f0       	breq	.+12     	; 0xa40 <__DATA_REGION_LENGTH__+0x40>
     a34:	c0 54       	subi	r28, 0x40	; 64
     a36:	d1 09       	sbc	r29, r1
     a38:	ce 01       	movw	r24, r28
     a3a:	0e 94 a5 10 	call	0x214a	; 0x214a <_ZN13LedControllerD1Ev>
     a3e:	f7 cf       	rjmp	.-18     	; 0xa2e <__DATA_REGION_LENGTH__+0x2e>
     a40:	df 91       	pop	r29
     a42:	cf 91       	pop	r28
     a44:	1f 91       	pop	r17
     a46:	0f 91       	pop	r16
     a48:	ff 90       	pop	r15
     a4a:	ef 90       	pop	r14
     a4c:	08 95       	ret

00000a4e <_ZN13LedControlleraSERKS_>:
     a4e:	cf 93       	push	r28
     a50:	df 93       	push	r29
     a52:	ec 01       	movw	r28, r24
     a54:	8c e0       	ldi	r24, 0x0C	; 12
     a56:	fb 01       	movw	r30, r22
     a58:	de 01       	movw	r26, r28
     a5a:	01 90       	ld	r0, Z+
     a5c:	0d 92       	st	X+, r0
     a5e:	8a 95       	dec	r24
     a60:	e1 f7       	brne	.-8      	; 0xa5a <_ZN13LedControlleraSERKS_+0xc>
     a62:	8c e0       	ldi	r24, 0x0C	; 12
     a64:	fb 01       	movw	r30, r22
     a66:	3c 96       	adiw	r30, 0x0c	; 12
     a68:	de 01       	movw	r26, r28
     a6a:	1c 96       	adiw	r26, 0x0c	; 12
     a6c:	01 90       	ld	r0, Z+
     a6e:	0d 92       	st	X+, r0
     a70:	8a 95       	dec	r24
     a72:	e1 f7       	brne	.-8      	; 0xa6c <_ZN13LedControlleraSERKS_+0x1e>
     a74:	8c e0       	ldi	r24, 0x0C	; 12
     a76:	fb 01       	movw	r30, r22
     a78:	78 96       	adiw	r30, 0x18	; 24
     a7a:	de 01       	movw	r26, r28
     a7c:	58 96       	adiw	r26, 0x18	; 24
     a7e:	01 90       	ld	r0, Z+
     a80:	0d 92       	st	X+, r0
     a82:	8a 95       	dec	r24
     a84:	e1 f7       	brne	.-8      	; 0xa7e <_ZN13LedControlleraSERKS_+0x30>
     a86:	fb 01       	movw	r30, r22
     a88:	84 a1       	ldd	r24, Z+36	; 0x24
     a8a:	8c a3       	std	Y+36, r24	; 0x24
     a8c:	87 e0       	ldi	r24, 0x07	; 7
     a8e:	b5 96       	adiw	r30, 0x25	; 37
     a90:	de 01       	movw	r26, r28
     a92:	95 96       	adiw	r26, 0x25	; 37
     a94:	01 90       	ld	r0, Z+
     a96:	0d 92       	st	X+, r0
     a98:	8a 95       	dec	r24
     a9a:	e1 f7       	brne	.-8      	; 0xa94 <_ZN13LedControlleraSERKS_+0x46>
     a9c:	fb 01       	movw	r30, r22
     a9e:	84 a5       	ldd	r24, Z+44	; 0x2c
     aa0:	8c a7       	std	Y+44, r24	; 0x2c
     aa2:	85 a5       	ldd	r24, Z+45	; 0x2d
     aa4:	8d a7       	std	Y+45, r24	; 0x2d
     aa6:	86 a5       	ldd	r24, Z+46	; 0x2e
     aa8:	8e a7       	std	Y+46, r24	; 0x2e
     aaa:	87 a5       	ldd	r24, Z+47	; 0x2f
     aac:	90 a9       	ldd	r25, Z+48	; 0x30
     aae:	a1 a9       	ldd	r26, Z+49	; 0x31
     ab0:	b2 a9       	ldd	r27, Z+50	; 0x32
     ab2:	8f a7       	std	Y+47, r24	; 0x2f
     ab4:	98 ab       	std	Y+48, r25	; 0x30
     ab6:	a9 ab       	std	Y+49, r26	; 0x31
     ab8:	ba ab       	std	Y+50, r27	; 0x32
     aba:	83 a9       	ldd	r24, Z+51	; 0x33
     abc:	94 a9       	ldd	r25, Z+52	; 0x34
     abe:	a5 a9       	ldd	r26, Z+53	; 0x35
     ac0:	b6 a9       	ldd	r27, Z+54	; 0x36
     ac2:	8b ab       	std	Y+51, r24	; 0x33
     ac4:	9c ab       	std	Y+52, r25	; 0x34
     ac6:	ad ab       	std	Y+53, r26	; 0x35
     ac8:	be ab       	std	Y+54, r27	; 0x36
     aca:	87 a9       	ldd	r24, Z+55	; 0x37
     acc:	90 ad       	ldd	r25, Z+56	; 0x38
     ace:	a1 ad       	ldd	r26, Z+57	; 0x39
     ad0:	b2 ad       	ldd	r27, Z+58	; 0x3a
     ad2:	8f ab       	std	Y+55, r24	; 0x37
     ad4:	98 af       	std	Y+56, r25	; 0x38
     ad6:	a9 af       	std	Y+57, r26	; 0x39
     ad8:	ba af       	std	Y+58, r27	; 0x3a
     ada:	83 ad       	ldd	r24, Z+59	; 0x3b
     adc:	8b af       	std	Y+59, r24	; 0x3b
     ade:	84 ad       	ldd	r24, Z+60	; 0x3c
     ae0:	95 ad       	ldd	r25, Z+61	; 0x3d
     ae2:	a6 ad       	ldd	r26, Z+62	; 0x3e
     ae4:	b7 ad       	ldd	r27, Z+63	; 0x3f
     ae6:	8c af       	std	Y+60, r24	; 0x3c
     ae8:	9d af       	std	Y+61, r25	; 0x3d
     aea:	ae af       	std	Y+62, r26	; 0x3e
     aec:	bf af       	std	Y+63, r27	; 0x3f
     aee:	ce 01       	movw	r24, r28
     af0:	df 91       	pop	r29
     af2:	cf 91       	pop	r28
     af4:	08 95       	ret

00000af6 <_ZN10Controller10InitializeEv>:
     af6:	df 92       	push	r13
     af8:	ef 92       	push	r14
     afa:	ff 92       	push	r15
     afc:	0f 93       	push	r16
     afe:	1f 93       	push	r17
     b00:	cf 93       	push	r28
     b02:	df 93       	push	r29
     b04:	cd b7       	in	r28, 0x3d	; 61
     b06:	de b7       	in	r29, 0x3e	; 62
     b08:	ce 54       	subi	r28, 0x4E	; 78
     b0a:	d1 09       	sbc	r29, r1
     b0c:	0f b6       	in	r0, 0x3f	; 63
     b0e:	f8 94       	cli
     b10:	de bf       	out	0x3e, r29	; 62
     b12:	0f be       	out	0x3f, r0	; 63
     b14:	cd bf       	out	0x3d, r28	; 61
     b16:	8c 01       	movw	r16, r24
     b18:	85 b7       	in	r24, 0x35	; 53
     b1a:	80 68       	ori	r24, 0x80	; 128
     b1c:	85 bf       	out	0x35, r24	; 53
     b1e:	85 b7       	in	r24, 0x35	; 53
     b20:	80 68       	ori	r24, 0x80	; 128
     b22:	85 bf       	out	0x35, r24	; 53
     b24:	e1 e6       	ldi	r30, 0x61	; 97
     b26:	f0 e0       	ldi	r31, 0x00	; 0
     b28:	80 e8       	ldi	r24, 0x80	; 128
     b2a:	80 83       	st	Z, r24
     b2c:	10 82       	st	Z, r1
     b2e:	84 b1       	in	r24, 0x04	; 4
     b30:	80 67       	ori	r24, 0x70	; 112
     b32:	84 b9       	out	0x04, r24	; 4
     b34:	85 b1       	in	r24, 0x05	; 5
     b36:	80 67       	ori	r24, 0x70	; 112
     b38:	85 b9       	out	0x05, r24	; 5
     b3a:	8a b1       	in	r24, 0x0a	; 10
     b3c:	80 6c       	ori	r24, 0xC0	; 192
     b3e:	8a b9       	out	0x0a, r24	; 10
     b40:	8b b1       	in	r24, 0x0b	; 11
     b42:	80 6c       	ori	r24, 0xC0	; 192
     b44:	8b b9       	out	0x0b, r24	; 11
     b46:	3e 9a       	sbi	0x07, 6	; 7
     b48:	46 9a       	sbi	0x08, 6	; 8
     b4a:	8d 9a       	sbi	0x11, 5	; 17
     b4c:	85 98       	cbi	0x10, 5	; 16
     b4e:	3f 9a       	sbi	0x07, 7	; 7
     b50:	8a b1       	in	r24, 0x0a	; 10
     b52:	83 60       	ori	r24, 0x03	; 3
     b54:	8a b9       	out	0x0a, r24	; 10
     b56:	85 b1       	in	r24, 0x05	; 5
     b58:	87 60       	ori	r24, 0x07	; 7
     b5a:	85 b9       	out	0x05, r24	; 5
     b5c:	20 98       	cbi	0x04, 0	; 4
     b5e:	8b b1       	in	r24, 0x0b	; 11
     b60:	8c 62       	ori	r24, 0x2C	; 44
     b62:	8b b9       	out	0x0b, r24	; 11
     b64:	8a b1       	in	r24, 0x0a	; 10
     b66:	83 7d       	andi	r24, 0xD3	; 211
     b68:	8a b9       	out	0x0a, r24	; 10
     b6a:	78 94       	sei
     b6c:	b8 01       	movw	r22, r16
     b6e:	60 5b       	subi	r22, 0xB0	; 176
     b70:	7e 4f       	sbci	r23, 0xFE	; 254
     b72:	fb 01       	movw	r30, r22
     b74:	10 82       	st	Z, r1
     b76:	31 96       	adiw	r30, 0x01	; 1
     b78:	10 82       	st	Z, r1
     b7a:	c8 01       	movw	r24, r16
     b7c:	8c 5a       	subi	r24, 0xAC	; 172
     b7e:	9e 4f       	sbci	r25, 0xFE	; 254
     b80:	0e 94 f5 10 	call	0x21ea	; 0x21ea <_ZN4TaskaSERKS_>
     b84:	78 01       	movw	r14, r16
     b86:	fe ef       	ldi	r31, 0xFE	; 254
     b88:	ef 1a       	sub	r14, r31
     b8a:	ff 0a       	sbc	r15, r31
     b8c:	c7 01       	movw	r24, r14
     b8e:	0e 94 43 02 	call	0x486	; 0x486 <_ZN12RecipeAccess10InitializeEv>
     b92:	c8 01       	movw	r24, r16
     b94:	8f 5d       	subi	r24, 0xDF	; 223
     b96:	9e 4f       	sbci	r25, 0xFE	; 254
     b98:	0e 94 fc 02 	call	0x5f8	; 0x5f8 <_ZN9RunLogger10InitializeEv>
     b9c:	b7 01       	movw	r22, r14
     b9e:	ce 01       	movw	r24, r28
     ba0:	01 96       	adiw	r24, 0x01	; 1
     ba2:	0e 94 a2 02 	call	0x544	; 0x544 <_ZN12RecipeAccess22GetInMemoryBoardRecipeEv>
     ba6:	78 01       	movw	r14, r16
     ba8:	8f ec       	ldi	r24, 0xCF	; 207
     baa:	e8 1a       	sub	r14, r24
     bac:	8e ef       	ldi	r24, 0xFE	; 254
     bae:	f8 0a       	sbc	r15, r24
     bb0:	89 81       	ldd	r24, Y+1	; 0x01
     bb2:	9a 81       	ldd	r25, Y+2	; 0x02
     bb4:	ab 81       	ldd	r26, Y+3	; 0x03
     bb6:	bc 81       	ldd	r27, Y+4	; 0x04
     bb8:	f7 01       	movw	r30, r14
     bba:	80 83       	st	Z, r24
     bbc:	91 83       	std	Z+1, r25	; 0x01
     bbe:	a2 83       	std	Z+2, r26	; 0x02
     bc0:	b3 83       	std	Z+3, r27	; 0x03
     bc2:	8d 81       	ldd	r24, Y+5	; 0x05
     bc4:	9e 81       	ldd	r25, Y+6	; 0x06
     bc6:	af 81       	ldd	r26, Y+7	; 0x07
     bc8:	b8 85       	ldd	r27, Y+8	; 0x08
     bca:	84 83       	std	Z+4, r24	; 0x04
     bcc:	95 83       	std	Z+5, r25	; 0x05
     bce:	a6 83       	std	Z+6, r26	; 0x06
     bd0:	b7 83       	std	Z+7, r27	; 0x07
     bd2:	89 85       	ldd	r24, Y+9	; 0x09
     bd4:	9a 85       	ldd	r25, Y+10	; 0x0a
     bd6:	ab 85       	ldd	r26, Y+11	; 0x0b
     bd8:	bc 85       	ldd	r27, Y+12	; 0x0c
     bda:	80 87       	std	Z+8, r24	; 0x08
     bdc:	91 87       	std	Z+9, r25	; 0x09
     bde:	a2 87       	std	Z+10, r26	; 0x0a
     be0:	b3 87       	std	Z+11, r27	; 0x0b
     be2:	8d 85       	ldd	r24, Y+13	; 0x0d
     be4:	84 87       	std	Z+12, r24	; 0x0c
     be6:	8e 85       	ldd	r24, Y+14	; 0x0e
     be8:	9f 85       	ldd	r25, Y+15	; 0x0f
     bea:	a8 89       	ldd	r26, Y+16	; 0x10
     bec:	b9 89       	ldd	r27, Y+17	; 0x11
     bee:	85 87       	std	Z+13, r24	; 0x0d
     bf0:	96 87       	std	Z+14, r25	; 0x0e
     bf2:	a7 87       	std	Z+15, r26	; 0x0f
     bf4:	b0 8b       	std	Z+16, r27	; 0x10
     bf6:	8a 89       	ldd	r24, Y+18	; 0x12
     bf8:	9b 89       	ldd	r25, Y+19	; 0x13
     bfa:	ac 89       	ldd	r26, Y+20	; 0x14
     bfc:	bd 89       	ldd	r27, Y+21	; 0x15
     bfe:	81 8b       	std	Z+17, r24	; 0x11
     c00:	92 8b       	std	Z+18, r25	; 0x12
     c02:	a3 8b       	std	Z+19, r26	; 0x13
     c04:	b4 8b       	std	Z+20, r27	; 0x14
     c06:	8e 89       	ldd	r24, Y+22	; 0x16
     c08:	85 8b       	std	Z+21, r24	; 0x15
     c0a:	8f 89       	ldd	r24, Y+23	; 0x17
     c0c:	98 8d       	ldd	r25, Y+24	; 0x18
     c0e:	a9 8d       	ldd	r26, Y+25	; 0x19
     c10:	ba 8d       	ldd	r27, Y+26	; 0x1a
     c12:	86 8b       	std	Z+22, r24	; 0x16
     c14:	97 8b       	std	Z+23, r25	; 0x17
     c16:	a0 8f       	std	Z+24, r26	; 0x18
     c18:	b1 8f       	std	Z+25, r27	; 0x19
     c1a:	8b 8d       	ldd	r24, Y+27	; 0x1b
     c1c:	9c 8d       	ldd	r25, Y+28	; 0x1c
     c1e:	ad 8d       	ldd	r26, Y+29	; 0x1d
     c20:	be 8d       	ldd	r27, Y+30	; 0x1e
     c22:	82 8f       	std	Z+26, r24	; 0x1a
     c24:	93 8f       	std	Z+27, r25	; 0x1b
     c26:	a4 8f       	std	Z+28, r26	; 0x1c
     c28:	b5 8f       	std	Z+29, r27	; 0x1d
     c2a:	8f 8d       	ldd	r24, Y+31	; 0x1f
     c2c:	86 8f       	std	Z+30, r24	; 0x1e
     c2e:	b7 01       	movw	r22, r14
     c30:	ce 01       	movw	r24, r28
     c32:	01 96       	adiw	r24, 0x01	; 1
     c34:	0e 94 52 11 	call	0x22a4	; 0x22a4 <_ZN5TimerC1ERKm>
     c38:	d8 01       	movw	r26, r16
     c3a:	ab 5d       	subi	r26, 0xDB	; 219
     c3c:	be 4f       	sbci	r27, 0xFE	; 254
     c3e:	8c e0       	ldi	r24, 0x0C	; 12
     c40:	fe 01       	movw	r30, r28
     c42:	31 96       	adiw	r30, 0x01	; 1
     c44:	01 90       	ld	r0, Z+
     c46:	0d 92       	st	X+, r0
     c48:	8a 95       	dec	r24
     c4a:	e1 f7       	brne	.-8      	; 0xc44 <__stack+0x145>
     c4c:	ce 01       	movw	r24, r28
     c4e:	01 96       	adiw	r24, 0x01	; 1
     c50:	0e 94 97 11 	call	0x232e	; 0x232e <_ZN5TimerD1Ev>
     c54:	87 e0       	ldi	r24, 0x07	; 7
     c56:	2f 96       	adiw	r28, 0x0f	; 15
     c58:	8f af       	std	Y+63, r24	; 0x3f
     c5a:	2f 97       	sbiw	r28, 0x0f	; 15
     c5c:	41 e0       	ldi	r20, 0x01	; 1
     c5e:	b7 01       	movw	r22, r14
     c60:	ce 01       	movw	r24, r28
     c62:	8f 5b       	subi	r24, 0xBF	; 191
     c64:	9f 4f       	sbci	r25, 0xFF	; 255
     c66:	0e 94 1c 04 	call	0x838	; 0x838 <_ZN11BoardRecipe12GetLedRecipeE3LED>
     c6a:	9e 01       	movw	r18, r28
     c6c:	22 5b       	subi	r18, 0xB2	; 178
     c6e:	3f 4f       	sbci	r19, 0xFF	; 255
     c70:	48 e2       	ldi	r20, 0x28	; 40
     c72:	50 e0       	ldi	r21, 0x00	; 0
     c74:	be 01       	movw	r22, r28
     c76:	6f 5b       	subi	r22, 0xBF	; 191
     c78:	7f 4f       	sbci	r23, 0xFF	; 255
     c7a:	ce 01       	movw	r24, r28
     c7c:	01 96       	adiw	r24, 0x01	; 1
     c7e:	0e 94 f8 0e 	call	0x1df0	; 0x1df0 <_ZN13LedControllerC1ERK9LedRecipePVhRKh>
     c82:	be 01       	movw	r22, r28
     c84:	6f 5f       	subi	r22, 0xFF	; 255
     c86:	7f 4f       	sbci	r23, 0xFF	; 255
     c88:	c8 01       	movw	r24, r16
     c8a:	0e 94 27 05 	call	0xa4e	; 0xa4e <_ZN13LedControlleraSERKS_>
     c8e:	ce 01       	movw	r24, r28
     c90:	01 96       	adiw	r24, 0x01	; 1
     c92:	0e 94 a5 10 	call	0x214a	; 0x214a <_ZN13LedControllerD1Ev>
     c96:	dd 24       	eor	r13, r13
     c98:	d3 94       	inc	r13
     c9a:	2f 96       	adiw	r28, 0x0f	; 15
     c9c:	df ae       	std	Y+63, r13	; 0x3f
     c9e:	2f 97       	sbiw	r28, 0x0f	; 15
     ca0:	42 e0       	ldi	r20, 0x02	; 2
     ca2:	b7 01       	movw	r22, r14
     ca4:	ce 01       	movw	r24, r28
     ca6:	8f 5b       	subi	r24, 0xBF	; 191
     ca8:	9f 4f       	sbci	r25, 0xFF	; 255
     caa:	0e 94 1c 04 	call	0x838	; 0x838 <_ZN11BoardRecipe12GetLedRecipeE3LED>
     cae:	9e 01       	movw	r18, r28
     cb0:	22 5b       	subi	r18, 0xB2	; 178
     cb2:	3f 4f       	sbci	r19, 0xFF	; 255
     cb4:	4b e2       	ldi	r20, 0x2B	; 43
     cb6:	50 e0       	ldi	r21, 0x00	; 0
     cb8:	be 01       	movw	r22, r28
     cba:	6f 5b       	subi	r22, 0xBF	; 191
     cbc:	7f 4f       	sbci	r23, 0xFF	; 255
     cbe:	ce 01       	movw	r24, r28
     cc0:	01 96       	adiw	r24, 0x01	; 1
     cc2:	0e 94 f8 0e 	call	0x1df0	; 0x1df0 <_ZN13LedControllerC1ERK9LedRecipePVhRKh>
     cc6:	be 01       	movw	r22, r28
     cc8:	6f 5f       	subi	r22, 0xFF	; 255
     cca:	7f 4f       	sbci	r23, 0xFF	; 255
     ccc:	c8 01       	movw	r24, r16
     cce:	80 5c       	subi	r24, 0xC0	; 192
     cd0:	9f 4f       	sbci	r25, 0xFF	; 255
     cd2:	0e 94 27 05 	call	0xa4e	; 0xa4e <_ZN13LedControlleraSERKS_>
     cd6:	ce 01       	movw	r24, r28
     cd8:	01 96       	adiw	r24, 0x01	; 1
     cda:	0e 94 a5 10 	call	0x214a	; 0x214a <_ZN13LedControllerD1Ev>
     cde:	2f 96       	adiw	r28, 0x0f	; 15
     ce0:	1f ae       	std	Y+63, r1	; 0x3f
     ce2:	2f 97       	sbiw	r28, 0x0f	; 15
     ce4:	43 e0       	ldi	r20, 0x03	; 3
     ce6:	b7 01       	movw	r22, r14
     ce8:	ce 01       	movw	r24, r28
     cea:	8f 5b       	subi	r24, 0xBF	; 191
     cec:	9f 4f       	sbci	r25, 0xFF	; 255
     cee:	0e 94 1c 04 	call	0x838	; 0x838 <_ZN11BoardRecipe12GetLedRecipeE3LED>
     cf2:	9e 01       	movw	r18, r28
     cf4:	22 5b       	subi	r18, 0xB2	; 178
     cf6:	3f 4f       	sbci	r19, 0xFF	; 255
     cf8:	4b e2       	ldi	r20, 0x2B	; 43
     cfa:	50 e0       	ldi	r21, 0x00	; 0
     cfc:	be 01       	movw	r22, r28
     cfe:	6f 5b       	subi	r22, 0xBF	; 191
     d00:	7f 4f       	sbci	r23, 0xFF	; 255
     d02:	ce 01       	movw	r24, r28
     d04:	01 96       	adiw	r24, 0x01	; 1
     d06:	0e 94 f8 0e 	call	0x1df0	; 0x1df0 <_ZN13LedControllerC1ERK9LedRecipePVhRKh>
     d0a:	be 01       	movw	r22, r28
     d0c:	6f 5f       	subi	r22, 0xFF	; 255
     d0e:	7f 4f       	sbci	r23, 0xFF	; 255
     d10:	c8 01       	movw	r24, r16
     d12:	80 58       	subi	r24, 0x80	; 128
     d14:	9f 4f       	sbci	r25, 0xFF	; 255
     d16:	0e 94 27 05 	call	0xa4e	; 0xa4e <_ZN13LedControlleraSERKS_>
     d1a:	ce 01       	movw	r24, r28
     d1c:	01 96       	adiw	r24, 0x01	; 1
     d1e:	0e 94 a5 10 	call	0x214a	; 0x214a <_ZN13LedControllerD1Ev>
     d22:	22 96       	adiw	r28, 0x02	; 2
     d24:	1f ae       	std	Y+63, r1	; 0x3f
     d26:	22 97       	sbiw	r28, 0x02	; 2
     d28:	20 e0       	ldi	r18, 0x00	; 0
     d2a:	ae 01       	movw	r20, r28
     d2c:	4f 5b       	subi	r20, 0xBF	; 191
     d2e:	5f 4f       	sbci	r21, 0xFF	; 255
     d30:	63 e2       	ldi	r22, 0x23	; 35
     d32:	70 e0       	ldi	r23, 0x00	; 0
     d34:	ce 01       	movw	r24, r28
     d36:	01 96       	adiw	r24, 0x01	; 1
     d38:	0e 94 b9 10 	call	0x2172	; 0x2172 <_ZN6SwitchC1EPVhRKhh>
     d3c:	d8 01       	movw	r26, r16
     d3e:	a0 54       	subi	r26, 0x40	; 64
     d40:	bf 4f       	sbci	r27, 0xFF	; 255
     d42:	8b e0       	ldi	r24, 0x0B	; 11
     d44:	fe 01       	movw	r30, r28
     d46:	31 96       	adiw	r30, 0x01	; 1
     d48:	01 90       	ld	r0, Z+
     d4a:	0d 92       	st	X+, r0
     d4c:	8a 95       	dec	r24
     d4e:	e1 f7       	brne	.-8      	; 0xd48 <__stack+0x249>
     d50:	ce 01       	movw	r24, r28
     d52:	01 96       	adiw	r24, 0x01	; 1
     d54:	0e 94 ee 10 	call	0x21dc	; 0x21dc <_ZN6SwitchD1Ev>
     d58:	22 96       	adiw	r28, 0x02	; 2
     d5a:	df ae       	std	Y+63, r13	; 0x3f
     d5c:	22 97       	sbiw	r28, 0x02	; 2
     d5e:	20 e0       	ldi	r18, 0x00	; 0
     d60:	ae 01       	movw	r20, r28
     d62:	4f 5b       	subi	r20, 0xBF	; 191
     d64:	5f 4f       	sbci	r21, 0xFF	; 255
     d66:	63 e2       	ldi	r22, 0x23	; 35
     d68:	70 e0       	ldi	r23, 0x00	; 0
     d6a:	ce 01       	movw	r24, r28
     d6c:	01 96       	adiw	r24, 0x01	; 1
     d6e:	0e 94 b9 10 	call	0x2172	; 0x2172 <_ZN6SwitchC1EPVhRKhh>
     d72:	d8 01       	movw	r26, r16
     d74:	a5 53       	subi	r26, 0x35	; 53
     d76:	bf 4f       	sbci	r27, 0xFF	; 255
     d78:	8b e0       	ldi	r24, 0x0B	; 11
     d7a:	fe 01       	movw	r30, r28
     d7c:	31 96       	adiw	r30, 0x01	; 1
     d7e:	01 90       	ld	r0, Z+
     d80:	0d 92       	st	X+, r0
     d82:	8a 95       	dec	r24
     d84:	e1 f7       	brne	.-8      	; 0xd7e <__stack+0x27f>
     d86:	ce 01       	movw	r24, r28
     d88:	01 96       	adiw	r24, 0x01	; 1
     d8a:	0e 94 ee 10 	call	0x21dc	; 0x21dc <_ZN6SwitchD1Ev>
     d8e:	82 e0       	ldi	r24, 0x02	; 2
     d90:	f8 2e       	mov	r15, r24
     d92:	22 96       	adiw	r28, 0x02	; 2
     d94:	ff ae       	std	Y+63, r15	; 0x3f
     d96:	22 97       	sbiw	r28, 0x02	; 2
     d98:	20 e0       	ldi	r18, 0x00	; 0
     d9a:	ae 01       	movw	r20, r28
     d9c:	4f 5b       	subi	r20, 0xBF	; 191
     d9e:	5f 4f       	sbci	r21, 0xFF	; 255
     da0:	63 e2       	ldi	r22, 0x23	; 35
     da2:	70 e0       	ldi	r23, 0x00	; 0
     da4:	ce 01       	movw	r24, r28
     da6:	01 96       	adiw	r24, 0x01	; 1
     da8:	0e 94 b9 10 	call	0x2172	; 0x2172 <_ZN6SwitchC1EPVhRKhh>
     dac:	d8 01       	movw	r26, r16
     dae:	aa 52       	subi	r26, 0x2A	; 42
     db0:	bf 4f       	sbci	r27, 0xFF	; 255
     db2:	8b e0       	ldi	r24, 0x0B	; 11
     db4:	fe 01       	movw	r30, r28
     db6:	31 96       	adiw	r30, 0x01	; 1
     db8:	01 90       	ld	r0, Z+
     dba:	0d 92       	st	X+, r0
     dbc:	8a 95       	dec	r24
     dbe:	e1 f7       	brne	.-8      	; 0xdb8 <__stack+0x2b9>
     dc0:	ce 01       	movw	r24, r28
     dc2:	01 96       	adiw	r24, 0x01	; 1
     dc4:	0e 94 ee 10 	call	0x21dc	; 0x21dc <_ZN6SwitchD1Ev>
     dc8:	85 e0       	ldi	r24, 0x05	; 5
     dca:	22 96       	adiw	r28, 0x02	; 2
     dcc:	8f af       	std	Y+63, r24	; 0x3f
     dce:	22 97       	sbiw	r28, 0x02	; 2
     dd0:	20 e0       	ldi	r18, 0x00	; 0
     dd2:	ae 01       	movw	r20, r28
     dd4:	4f 5b       	subi	r20, 0xBF	; 191
     dd6:	5f 4f       	sbci	r21, 0xFF	; 255
     dd8:	69 e2       	ldi	r22, 0x29	; 41
     dda:	70 e0       	ldi	r23, 0x00	; 0
     ddc:	ce 01       	movw	r24, r28
     dde:	01 96       	adiw	r24, 0x01	; 1
     de0:	0e 94 b9 10 	call	0x2172	; 0x2172 <_ZN6SwitchC1EPVhRKhh>
     de4:	d8 01       	movw	r26, r16
     de6:	af 51       	subi	r26, 0x1F	; 31
     de8:	bf 4f       	sbci	r27, 0xFF	; 255
     dea:	8b e0       	ldi	r24, 0x0B	; 11
     dec:	fe 01       	movw	r30, r28
     dee:	31 96       	adiw	r30, 0x01	; 1
     df0:	01 90       	ld	r0, Z+
     df2:	0d 92       	st	X+, r0
     df4:	8a 95       	dec	r24
     df6:	e1 f7       	brne	.-8      	; 0xdf0 <__stack+0x2f1>
     df8:	ce 01       	movw	r24, r28
     dfa:	01 96       	adiw	r24, 0x01	; 1
     dfc:	0e 94 ee 10 	call	0x21dc	; 0x21dc <_ZN6SwitchD1Ev>
     e00:	83 e0       	ldi	r24, 0x03	; 3
     e02:	22 96       	adiw	r28, 0x02	; 2
     e04:	8f af       	std	Y+63, r24	; 0x3f
     e06:	22 97       	sbiw	r28, 0x02	; 2
     e08:	20 e0       	ldi	r18, 0x00	; 0
     e0a:	ae 01       	movw	r20, r28
     e0c:	4f 5b       	subi	r20, 0xBF	; 191
     e0e:	5f 4f       	sbci	r21, 0xFF	; 255
     e10:	69 e2       	ldi	r22, 0x29	; 41
     e12:	70 e0       	ldi	r23, 0x00	; 0
     e14:	ce 01       	movw	r24, r28
     e16:	01 96       	adiw	r24, 0x01	; 1
     e18:	0e 94 b9 10 	call	0x2172	; 0x2172 <_ZN6SwitchC1EPVhRKhh>
     e1c:	d8 01       	movw	r26, r16
     e1e:	a4 51       	subi	r26, 0x14	; 20
     e20:	bf 4f       	sbci	r27, 0xFF	; 255
     e22:	8b e0       	ldi	r24, 0x0B	; 11
     e24:	fe 01       	movw	r30, r28
     e26:	31 96       	adiw	r30, 0x01	; 1
     e28:	01 90       	ld	r0, Z+
     e2a:	0d 92       	st	X+, r0
     e2c:	8a 95       	dec	r24
     e2e:	e1 f7       	brne	.-8      	; 0xe28 <__stack+0x329>
     e30:	ce 01       	movw	r24, r28
     e32:	01 96       	adiw	r24, 0x01	; 1
     e34:	0e 94 ee 10 	call	0x21dc	; 0x21dc <_ZN6SwitchD1Ev>
     e38:	22 96       	adiw	r28, 0x02	; 2
     e3a:	ff ae       	std	Y+63, r15	; 0x3f
     e3c:	22 97       	sbiw	r28, 0x02	; 2
     e3e:	20 e0       	ldi	r18, 0x00	; 0
     e40:	ae 01       	movw	r20, r28
     e42:	4f 5b       	subi	r20, 0xBF	; 191
     e44:	5f 4f       	sbci	r21, 0xFF	; 255
     e46:	69 e2       	ldi	r22, 0x29	; 41
     e48:	70 e0       	ldi	r23, 0x00	; 0
     e4a:	ce 01       	movw	r24, r28
     e4c:	01 96       	adiw	r24, 0x01	; 1
     e4e:	0e 94 b9 10 	call	0x2172	; 0x2172 <_ZN6SwitchC1EPVhRKhh>
     e52:	d8 01       	movw	r26, r16
     e54:	a9 50       	subi	r26, 0x09	; 9
     e56:	bf 4f       	sbci	r27, 0xFF	; 255
     e58:	8b e0       	ldi	r24, 0x0B	; 11
     e5a:	fe 01       	movw	r30, r28
     e5c:	31 96       	adiw	r30, 0x01	; 1
     e5e:	01 90       	ld	r0, Z+
     e60:	0d 92       	st	X+, r0
     e62:	8a 95       	dec	r24
     e64:	e1 f7       	brne	.-8      	; 0xe5e <__stack+0x35f>
     e66:	ce 01       	movw	r24, r28
     e68:	01 96       	adiw	r24, 0x01	; 1
     e6a:	0e 94 ee 10 	call	0x21dc	; 0x21dc <_ZN6SwitchD1Ev>
     e6e:	f8 01       	movw	r30, r16
     e70:	e7 5a       	subi	r30, 0xA7	; 167
     e72:	fe 4f       	sbci	r31, 0xFE	; 254
     e74:	84 ed       	ldi	r24, 0xD4	; 212
     e76:	98 e0       	ldi	r25, 0x08	; 8
     e78:	91 83       	std	Z+1, r25	; 0x01
     e7a:	80 83       	st	Z, r24
     e7c:	32 96       	adiw	r30, 0x02	; 2
     e7e:	11 82       	std	Z+1, r1	; 0x01
     e80:	10 82       	st	Z, r1
     e82:	32 96       	adiw	r30, 0x02	; 2
     e84:	83 e7       	ldi	r24, 0x73	; 115
     e86:	9c e0       	ldi	r25, 0x0C	; 12
     e88:	91 83       	std	Z+1, r25	; 0x01
     e8a:	80 83       	st	Z, r24
     e8c:	32 96       	adiw	r30, 0x02	; 2
     e8e:	11 82       	std	Z+1, r1	; 0x01
     e90:	10 82       	st	Z, r1
     e92:	32 96       	adiw	r30, 0x02	; 2
     e94:	8a ef       	ldi	r24, 0xFA	; 250
     e96:	93 e0       	ldi	r25, 0x03	; 3
     e98:	91 83       	std	Z+1, r25	; 0x01
     e9a:	80 83       	st	Z, r24
     e9c:	32 96       	adiw	r30, 0x02	; 2
     e9e:	11 82       	std	Z+1, r1	; 0x01
     ea0:	10 82       	st	Z, r1
     ea2:	32 96       	adiw	r30, 0x02	; 2
     ea4:	8c ef       	ldi	r24, 0xFC	; 252
     ea6:	93 e0       	ldi	r25, 0x03	; 3
     ea8:	91 83       	std	Z+1, r25	; 0x01
     eaa:	80 83       	st	Z, r24
     eac:	32 96       	adiw	r30, 0x02	; 2
     eae:	11 82       	std	Z+1, r1	; 0x01
     eb0:	10 82       	st	Z, r1
     eb2:	32 96       	adiw	r30, 0x02	; 2
     eb4:	80 e0       	ldi	r24, 0x00	; 0
     eb6:	94 e0       	ldi	r25, 0x04	; 4
     eb8:	91 83       	std	Z+1, r25	; 0x01
     eba:	80 83       	st	Z, r24
     ebc:	32 96       	adiw	r30, 0x02	; 2
     ebe:	11 82       	std	Z+1, r1	; 0x01
     ec0:	10 82       	st	Z, r1
     ec2:	32 96       	adiw	r30, 0x02	; 2
     ec4:	8c e8       	ldi	r24, 0x8C	; 140
     ec6:	99 e0       	ldi	r25, 0x09	; 9
     ec8:	91 83       	std	Z+1, r25	; 0x01
     eca:	80 83       	st	Z, r24
     ecc:	32 96       	adiw	r30, 0x02	; 2
     ece:	11 82       	std	Z+1, r1	; 0x01
     ed0:	10 82       	st	Z, r1
     ed2:	32 96       	adiw	r30, 0x02	; 2
     ed4:	84 e3       	ldi	r24, 0x34	; 52
     ed6:	9a e0       	ldi	r25, 0x0A	; 10
     ed8:	91 83       	std	Z+1, r25	; 0x01
     eda:	80 83       	st	Z, r24
     edc:	32 96       	adiw	r30, 0x02	; 2
     ede:	11 82       	std	Z+1, r1	; 0x01
     ee0:	10 82       	st	Z, r1
     ee2:	32 96       	adiw	r30, 0x02	; 2
     ee4:	86 eb       	ldi	r24, 0xB6	; 182
     ee6:	9a e0       	ldi	r25, 0x0A	; 10
     ee8:	91 83       	std	Z+1, r25	; 0x01
     eea:	80 83       	st	Z, r24
     eec:	32 96       	adiw	r30, 0x02	; 2
     eee:	11 82       	std	Z+1, r1	; 0x01
     ef0:	10 82       	st	Z, r1
     ef2:	32 96       	adiw	r30, 0x02	; 2
     ef4:	8c e3       	ldi	r24, 0x3C	; 60
     ef6:	9b e0       	ldi	r25, 0x0B	; 11
     ef8:	91 83       	std	Z+1, r25	; 0x01
     efa:	80 83       	st	Z, r24
     efc:	32 96       	adiw	r30, 0x02	; 2
     efe:	11 82       	std	Z+1, r1	; 0x01
     f00:	10 82       	st	Z, r1
     f02:	32 96       	adiw	r30, 0x02	; 2
     f04:	86 ec       	ldi	r24, 0xC6	; 198
     f06:	9b e0       	ldi	r25, 0x0B	; 11
     f08:	91 83       	std	Z+1, r25	; 0x01
     f0a:	80 83       	st	Z, r24
     f0c:	32 96       	adiw	r30, 0x02	; 2
     f0e:	11 82       	std	Z+1, r1	; 0x01
     f10:	10 82       	st	Z, r1
     f12:	32 96       	adiw	r30, 0x02	; 2
     f14:	8b ee       	ldi	r24, 0xEB	; 235
     f16:	93 e0       	ldi	r25, 0x03	; 3
     f18:	91 83       	std	Z+1, r25	; 0x01
     f1a:	80 83       	st	Z, r24
     f1c:	32 96       	adiw	r30, 0x02	; 2
     f1e:	11 82       	std	Z+1, r1	; 0x01
     f20:	10 82       	st	Z, r1
     f22:	32 96       	adiw	r30, 0x02	; 2
     f24:	80 ef       	ldi	r24, 0xF0	; 240
     f26:	93 e0       	ldi	r25, 0x03	; 3
     f28:	91 83       	std	Z+1, r25	; 0x01
     f2a:	80 83       	st	Z, r24
     f2c:	32 96       	adiw	r30, 0x02	; 2
     f2e:	11 82       	std	Z+1, r1	; 0x01
     f30:	10 82       	st	Z, r1
     f32:	32 96       	adiw	r30, 0x02	; 2
     f34:	85 ef       	ldi	r24, 0xF5	; 245
     f36:	93 e0       	ldi	r25, 0x03	; 3
     f38:	91 83       	std	Z+1, r25	; 0x01
     f3a:	80 83       	st	Z, r24
     f3c:	32 96       	adiw	r30, 0x02	; 2
     f3e:	11 82       	std	Z+1, r1	; 0x01
     f40:	10 82       	st	Z, r1
     f42:	0e 94 9d 11 	call	0x233a	; 0x233a <m_usb_init>
     f46:	0e 94 0c 11 	call	0x2218	; 0x2218 <millis_init>
     f4a:	c2 5b       	subi	r28, 0xB2	; 178
     f4c:	df 4f       	sbci	r29, 0xFF	; 255
     f4e:	0f b6       	in	r0, 0x3f	; 63
     f50:	f8 94       	cli
     f52:	de bf       	out	0x3e, r29	; 62
     f54:	0f be       	out	0x3f, r0	; 63
     f56:	cd bf       	out	0x3d, r28	; 61
     f58:	df 91       	pop	r29
     f5a:	cf 91       	pop	r28
     f5c:	1f 91       	pop	r17
     f5e:	0f 91       	pop	r16
     f60:	ff 90       	pop	r15
     f62:	ef 90       	pop	r14
     f64:	df 90       	pop	r13
     f66:	08 95       	ret

00000f68 <_ZN10Controller17CheckMainSwitchesEv>:
     f68:	0f 93       	push	r16
     f6a:	1f 93       	push	r17
     f6c:	cf 93       	push	r28
     f6e:	df 93       	push	r29
     f70:	8c 01       	movw	r16, r24
     f72:	00 54       	subi	r16, 0x40	; 64
     f74:	1f 4f       	sbci	r17, 0xFF	; 255
     f76:	c0 e0       	ldi	r28, 0x00	; 0
     f78:	d0 e0       	ldi	r29, 0x00	; 0
     f7a:	c8 01       	movw	r24, r16
     f7c:	0e 94 c6 10 	call	0x218c	; 0x218c <_ZN6Switch8debounceEv>
     f80:	c8 01       	movw	r24, r16
     f82:	0e 94 eb 10 	call	0x21d6	; 0x21d6 <_ZN6Switch8switchedEv>
     f86:	88 23       	and	r24, r24
     f88:	29 f0       	breq	.+10     	; 0xf94 <_ZN10Controller17CheckMainSwitchesEv+0x2c>
     f8a:	c8 01       	movw	r24, r16
     f8c:	0e 94 e8 10 	call	0x21d0	; 0x21d0 <_ZN6Switch11clear_stateEv>
     f90:	ce 01       	movw	r24, r28
     f92:	0e c0       	rjmp	.+28     	; 0xfb0 <_ZN10Controller17CheckMainSwitchesEv+0x48>
     f94:	8f e9       	ldi	r24, 0x9F	; 159
     f96:	9f e0       	ldi	r25, 0x0F	; 15
     f98:	01 97       	sbiw	r24, 0x01	; 1
     f9a:	f1 f7       	brne	.-4      	; 0xf98 <_ZN10Controller17CheckMainSwitchesEv+0x30>
     f9c:	00 c0       	rjmp	.+0      	; 0xf9e <_ZN10Controller17CheckMainSwitchesEv+0x36>
     f9e:	00 00       	nop
     fa0:	21 96       	adiw	r28, 0x01	; 1
     fa2:	05 5f       	subi	r16, 0xF5	; 245
     fa4:	1f 4f       	sbci	r17, 0xFF	; 255
     fa6:	c3 30       	cpi	r28, 0x03	; 3
     fa8:	d1 05       	cpc	r29, r1
     faa:	39 f7       	brne	.-50     	; 0xf7a <_ZN10Controller17CheckMainSwitchesEv+0x12>
     fac:	8f ef       	ldi	r24, 0xFF	; 255
     fae:	9f ef       	ldi	r25, 0xFF	; 255
     fb0:	df 91       	pop	r29
     fb2:	cf 91       	pop	r28
     fb4:	1f 91       	pop	r17
     fb6:	0f 91       	pop	r16
     fb8:	08 95       	ret

00000fba <_ZN10Controller22CheckSecondarySwitchesEv>:
     fba:	0f 93       	push	r16
     fbc:	1f 93       	push	r17
     fbe:	cf 93       	push	r28
     fc0:	df 93       	push	r29
     fc2:	8c 01       	movw	r16, r24
     fc4:	0f 51       	subi	r16, 0x1F	; 31
     fc6:	1f 4f       	sbci	r17, 0xFF	; 255
     fc8:	c3 e0       	ldi	r28, 0x03	; 3
     fca:	d0 e0       	ldi	r29, 0x00	; 0
     fcc:	c8 01       	movw	r24, r16
     fce:	0e 94 c6 10 	call	0x218c	; 0x218c <_ZN6Switch8debounceEv>
     fd2:	c8 01       	movw	r24, r16
     fd4:	0e 94 eb 10 	call	0x21d6	; 0x21d6 <_ZN6Switch8switchedEv>
     fd8:	88 23       	and	r24, r24
     fda:	29 f0       	breq	.+10     	; 0xfe6 <_ZN10Controller22CheckSecondarySwitchesEv+0x2c>
     fdc:	c8 01       	movw	r24, r16
     fde:	0e 94 e8 10 	call	0x21d0	; 0x21d0 <_ZN6Switch11clear_stateEv>
     fe2:	ce 01       	movw	r24, r28
     fe4:	0e c0       	rjmp	.+28     	; 0x1002 <_ZN10Controller22CheckSecondarySwitchesEv+0x48>
     fe6:	8f e9       	ldi	r24, 0x9F	; 159
     fe8:	9f e0       	ldi	r25, 0x0F	; 15
     fea:	01 97       	sbiw	r24, 0x01	; 1
     fec:	f1 f7       	brne	.-4      	; 0xfea <_ZN10Controller22CheckSecondarySwitchesEv+0x30>
     fee:	00 c0       	rjmp	.+0      	; 0xff0 <_ZN10Controller22CheckSecondarySwitchesEv+0x36>
     ff0:	00 00       	nop
     ff2:	21 96       	adiw	r28, 0x01	; 1
     ff4:	05 5f       	subi	r16, 0xF5	; 245
     ff6:	1f 4f       	sbci	r17, 0xFF	; 255
     ff8:	c6 30       	cpi	r28, 0x06	; 6
     ffa:	d1 05       	cpc	r29, r1
     ffc:	39 f7       	brne	.-50     	; 0xfcc <_ZN10Controller22CheckSecondarySwitchesEv+0x12>
     ffe:	8f ef       	ldi	r24, 0xFF	; 255
    1000:	9f ef       	ldi	r25, 0xFF	; 255
    1002:	df 91       	pop	r29
    1004:	cf 91       	pop	r28
    1006:	1f 91       	pop	r17
    1008:	0f 91       	pop	r16
    100a:	08 95       	ret

0000100c <_ZN10Controller22ProcessSecondarySwitchEi>:
    100c:	64 30       	cpi	r22, 0x04	; 4
    100e:	71 05       	cpc	r23, r1
    1010:	59 f0       	breq	.+22     	; 0x1028 <_ZN10Controller22ProcessSecondarySwitchEi+0x1c>
    1012:	65 30       	cpi	r22, 0x05	; 5
    1014:	71 05       	cpc	r23, r1
    1016:	69 f0       	breq	.+26     	; 0x1032 <_ZN10Controller22ProcessSecondarySwitchEi+0x26>
    1018:	63 30       	cpi	r22, 0x03	; 3
    101a:	71 05       	cpc	r23, r1
    101c:	a9 f4       	brne	.+42     	; 0x1048 <_ZN10Controller22ProcessSecondarySwitchEi+0x3c>
    101e:	fc 01       	movw	r30, r24
    1020:	ea 5a       	subi	r30, 0xAA	; 170
    1022:	fe 4f       	sbci	r31, 0xFE	; 254
    1024:	22 e0       	ldi	r18, 0x02	; 2
    1026:	09 c0       	rjmp	.+18     	; 0x103a <_ZN10Controller22ProcessSecondarySwitchEi+0x2e>
    1028:	fc 01       	movw	r30, r24
    102a:	ea 5a       	subi	r30, 0xAA	; 170
    102c:	fe 4f       	sbci	r31, 0xFE	; 254
    102e:	23 e0       	ldi	r18, 0x03	; 3
    1030:	04 c0       	rjmp	.+8      	; 0x103a <_ZN10Controller22ProcessSecondarySwitchEi+0x2e>
    1032:	fc 01       	movw	r30, r24
    1034:	ea 5a       	subi	r30, 0xAA	; 170
    1036:	fe 4f       	sbci	r31, 0xFE	; 254
    1038:	24 e0       	ldi	r18, 0x04	; 4
    103a:	20 83       	st	Z, r18
    103c:	31 97       	sbiw	r30, 0x01	; 1
    103e:	10 82       	st	Z, r1
    1040:	32 96       	adiw	r30, 0x02	; 2
    1042:	10 82       	st	Z, r1
    1044:	33 97       	sbiw	r30, 0x03	; 3
    1046:	10 82       	st	Z, r1
    1048:	08 95       	ret

0000104a <_ZN10Controller13ProcessSwitchEi>:
    104a:	cf 93       	push	r28
    104c:	df 93       	push	r29
    104e:	61 30       	cpi	r22, 0x01	; 1
    1050:	71 05       	cpc	r23, r1
    1052:	51 f0       	breq	.+20     	; 0x1068 <_ZN10Controller13ProcessSwitchEi+0x1e>
    1054:	62 30       	cpi	r22, 0x02	; 2
    1056:	71 05       	cpc	r23, r1
    1058:	99 f0       	breq	.+38     	; 0x1080 <_ZN10Controller13ProcessSwitchEi+0x36>
    105a:	67 2b       	or	r22, r23
    105c:	d1 f4       	brne	.+52     	; 0x1092 <_ZN10Controller13ProcessSwitchEi+0x48>
    105e:	fc 01       	movw	r30, r24
    1060:	ea 5a       	subi	r30, 0xAA	; 170
    1062:	fe 4f       	sbci	r31, 0xFE	; 254
    1064:	10 82       	st	Z, r1
    1066:	05 c0       	rjmp	.+10     	; 0x1072 <_ZN10Controller13ProcessSwitchEi+0x28>
    1068:	fc 01       	movw	r30, r24
    106a:	ea 5a       	subi	r30, 0xAA	; 170
    106c:	fe 4f       	sbci	r31, 0xFE	; 254
    106e:	21 e0       	ldi	r18, 0x01	; 1
    1070:	20 83       	st	Z, r18
    1072:	31 97       	sbiw	r30, 0x01	; 1
    1074:	10 82       	st	Z, r1
    1076:	32 96       	adiw	r30, 0x02	; 2
    1078:	10 82       	st	Z, r1
    107a:	33 97       	sbiw	r30, 0x03	; 3
    107c:	10 82       	st	Z, r1
    107e:	09 c0       	rjmp	.+18     	; 0x1092 <_ZN10Controller13ProcessSwitchEi+0x48>
    1080:	ec 01       	movw	r28, r24
    1082:	0e 94 dd 07 	call	0xfba	; 0xfba <_ZN10Controller22CheckSecondarySwitchesEv>
    1086:	bc 01       	movw	r22, r24
    1088:	ce 01       	movw	r24, r28
    108a:	df 91       	pop	r29
    108c:	cf 91       	pop	r28
    108e:	0c 94 06 08 	jmp	0x100c	; 0x100c <_ZN10Controller22ProcessSecondarySwitchEi>
    1092:	df 91       	pop	r29
    1094:	cf 91       	pop	r28
    1096:	08 95       	ret

00001098 <_ZN10Controller5StartEv>:
    1098:	cf 93       	push	r28
    109a:	df 93       	push	r29
    109c:	ec 01       	movw	r28, r24
    109e:	0e 94 b4 07 	call	0xf68	; 0xf68 <_ZN10Controller17CheckMainSwitchesEv>
    10a2:	bc 01       	movw	r22, r24
    10a4:	ce 01       	movw	r24, r28
    10a6:	0e 94 25 08 	call	0x104a	; 0x104a <_ZN10Controller13ProcessSwitchEi>
    10aa:	be 01       	movw	r22, r28
    10ac:	6c 5a       	subi	r22, 0xAC	; 172
    10ae:	7e 4f       	sbci	r23, 0xFE	; 254
    10b0:	ce 01       	movw	r24, r28
    10b2:	80 5b       	subi	r24, 0xB0	; 176
    10b4:	9e 4f       	sbci	r25, 0xFE	; 254
    10b6:	0e 94 f5 10 	call	0x21ea	; 0x21ea <_ZN4TaskaSERKS_>
    10ba:	cd 5a       	subi	r28, 0xAD	; 173
    10bc:	de 4f       	sbci	r29, 0xFE	; 254
    10be:	18 82       	st	Y, r1
    10c0:	df 91       	pop	r29
    10c2:	cf 91       	pop	r28
    10c4:	08 95       	ret

000010c6 <_ZN10Controller3RunEv>:
    10c6:	ec 01       	movw	r28, r24
    10c8:	7c 01       	movw	r14, r24
    10ca:	8c ea       	ldi	r24, 0xAC	; 172
    10cc:	e8 1a       	sub	r14, r24
    10ce:	8e ef       	ldi	r24, 0xFE	; 254
    10d0:	f8 0a       	sbc	r15, r24
    10d2:	6e 01       	movw	r12, r28
    10d4:	90 eb       	ldi	r25, 0xB0	; 176
    10d6:	c9 1a       	sub	r12, r25
    10d8:	9e ef       	ldi	r25, 0xFE	; 254
    10da:	d9 0a       	sbc	r13, r25
    10dc:	8e 01       	movw	r16, r28
    10de:	0e 5a       	subi	r16, 0xAE	; 174
    10e0:	1e 4f       	sbci	r17, 0xFE	; 254
    10e2:	ce 01       	movw	r24, r28
    10e4:	0e 94 b4 07 	call	0xf68	; 0xf68 <_ZN10Controller17CheckMainSwitchesEv>
    10e8:	bc 01       	movw	r22, r24
    10ea:	ce 01       	movw	r24, r28
    10ec:	0e 94 25 08 	call	0x104a	; 0x104a <_ZN10Controller13ProcessSwitchEi>
    10f0:	b7 01       	movw	r22, r14
    10f2:	c6 01       	movw	r24, r12
    10f4:	0e 94 01 11 	call	0x2202	; 0x2202 <_ZNK4TaskneERKS_>
    10f8:	f8 01       	movw	r30, r16
    10fa:	88 23       	and	r24, r24
    10fc:	29 f1       	breq	.+74     	; 0x1148 <_ZN10Controller3RunEv+0x82>
    10fe:	80 81       	ld	r24, Z
    1100:	fe 01       	movw	r30, r28
    1102:	94 e0       	ldi	r25, 0x04	; 4
    1104:	89 9f       	mul	r24, r25
    1106:	e0 0d       	add	r30, r0
    1108:	f1 1d       	adc	r31, r1
    110a:	11 24       	eor	r1, r1
    110c:	df 01       	movw	r26, r30
    110e:	a1 59       	subi	r26, 0x91	; 145
    1110:	be 4f       	sbci	r27, 0xFE	; 254
    1112:	2d 91       	ld	r18, X+
    1114:	3c 91       	ld	r19, X
    1116:	e3 59       	subi	r30, 0x93	; 147
    1118:	fe 4f       	sbci	r31, 0xFE	; 254
    111a:	c9 01       	movw	r24, r18
    111c:	95 95       	asr	r25
    111e:	87 95       	ror	r24
    1120:	20 ff       	sbrs	r18, 0
    1122:	0a c0       	rjmp	.+20     	; 0x1138 <_ZN10Controller3RunEv+0x72>
    1124:	de 01       	movw	r26, r28
    1126:	a8 0f       	add	r26, r24
    1128:	b9 1f       	adc	r27, r25
    112a:	4d 91       	ld	r20, X+
    112c:	5c 91       	ld	r21, X
    112e:	20 81       	ld	r18, Z
    1130:	31 81       	ldd	r19, Z+1	; 0x01
    1132:	fa 01       	movw	r30, r20
    1134:	e2 0f       	add	r30, r18
    1136:	f3 1f       	adc	r31, r19
    1138:	01 90       	ld	r0, Z+
    113a:	f0 81       	ld	r31, Z
    113c:	e0 2d       	mov	r30, r0
    113e:	61 e0       	ldi	r22, 0x01	; 1
    1140:	8c 0f       	add	r24, r28
    1142:	9d 1f       	adc	r25, r29
    1144:	09 95       	icall
    1146:	cd cf       	rjmp	.-102    	; 0x10e2 <_ZN10Controller3RunEv+0x1c>
    1148:	80 81       	ld	r24, Z
    114a:	fe 01       	movw	r30, r28
    114c:	94 e0       	ldi	r25, 0x04	; 4
    114e:	89 9f       	mul	r24, r25
    1150:	e0 0d       	add	r30, r0
    1152:	f1 1d       	adc	r31, r1
    1154:	11 24       	eor	r1, r1
    1156:	df 01       	movw	r26, r30
    1158:	a5 5a       	subi	r26, 0xA5	; 165
    115a:	be 4f       	sbci	r27, 0xFE	; 254
    115c:	2d 91       	ld	r18, X+
    115e:	3c 91       	ld	r19, X
    1160:	e7 5a       	subi	r30, 0xA7	; 167
    1162:	fe 4f       	sbci	r31, 0xFE	; 254
    1164:	c9 01       	movw	r24, r18
    1166:	95 95       	asr	r25
    1168:	87 95       	ror	r24
    116a:	20 ff       	sbrs	r18, 0
    116c:	0a c0       	rjmp	.+20     	; 0x1182 <_ZN10Controller3RunEv+0xbc>
    116e:	de 01       	movw	r26, r28
    1170:	a8 0f       	add	r26, r24
    1172:	b9 1f       	adc	r27, r25
    1174:	4d 91       	ld	r20, X+
    1176:	5c 91       	ld	r21, X
    1178:	20 81       	ld	r18, Z
    117a:	31 81       	ldd	r19, Z+1	; 0x01
    117c:	fa 01       	movw	r30, r20
    117e:	e2 0f       	add	r30, r18
    1180:	f3 1f       	adc	r31, r19
    1182:	01 90       	ld	r0, Z+
    1184:	f0 81       	ld	r31, Z
    1186:	e0 2d       	mov	r30, r0
    1188:	8c 0f       	add	r24, r28
    118a:	9d 1f       	adc	r25, r29
    118c:	09 95       	icall
    118e:	a9 cf       	rjmp	.-174    	; 0x10e2 <_ZN10Controller3RunEv+0x1c>

00001190 <_ZN10Controller11DisplayUVOnEv>:
    1190:	8b b1       	in	r24, 0x0b	; 11
    1192:	80 6c       	ori	r24, 0xC0	; 192
    1194:	8b b9       	out	0x0b, r24	; 11
    1196:	46 9a       	sbi	0x08, 6	; 8
    1198:	46 98       	cbi	0x08, 6	; 8
    119a:	08 95       	ret

0000119c <_ZN10Controller12DisplayUVOffEv>:
    119c:	8b b1       	in	r24, 0x0b	; 11
    119e:	80 6c       	ori	r24, 0xC0	; 192
    11a0:	8b b9       	out	0x0b, r24	; 11
    11a2:	46 9a       	sbi	0x08, 6	; 8
    11a4:	5f 98       	cbi	0x0b, 7	; 11
    11a6:	08 95       	ret

000011a8 <_ZN10Controller7RunAutoEv>:
    11a8:	6f 92       	push	r6
    11aa:	7f 92       	push	r7
    11ac:	8f 92       	push	r8
    11ae:	9f 92       	push	r9
    11b0:	af 92       	push	r10
    11b2:	bf 92       	push	r11
    11b4:	cf 92       	push	r12
    11b6:	df 92       	push	r13
    11b8:	ef 92       	push	r14
    11ba:	ff 92       	push	r15
    11bc:	0f 93       	push	r16
    11be:	1f 93       	push	r17
    11c0:	cf 93       	push	r28
    11c2:	df 93       	push	r29
    11c4:	ec 01       	movw	r28, r24
    11c6:	5c 01       	movw	r10, r24
    11c8:	8f ea       	ldi	r24, 0xAF	; 175
    11ca:	a8 1a       	sub	r10, r24
    11cc:	8e ef       	ldi	r24, 0xFE	; 254
    11ce:	b8 0a       	sbc	r11, r24
    11d0:	d5 01       	movw	r26, r10
    11d2:	8c 91       	ld	r24, X
    11d4:	88 23       	and	r24, r24
    11d6:	21 f0       	breq	.+8      	; 0x11e0 <_ZN10Controller7RunAutoEv+0x38>
    11d8:	83 30       	cpi	r24, 0x03	; 3
    11da:	09 f4       	brne	.+2      	; 0x11de <_ZN10Controller7RunAutoEv+0x36>
    11dc:	5e c0       	rjmp	.+188    	; 0x129a <_ZN10Controller7RunAutoEv+0xf2>
    11de:	8d c0       	rjmp	.+282    	; 0x12fa <_ZN10Controller7RunAutoEv+0x152>
    11e0:	6e 01       	movw	r12, r28
    11e2:	7e 01       	movw	r14, r28
    11e4:	bf e7       	ldi	r27, 0x7F	; 127
    11e6:	eb 1a       	sub	r14, r27
    11e8:	be ef       	ldi	r27, 0xFE	; 254
    11ea:	fb 0a       	sbc	r15, r27
    11ec:	81 2c       	mov	r8, r1
    11ee:	91 2c       	mov	r9, r1
    11f0:	00 e0       	ldi	r16, 0x00	; 0
    11f2:	10 e0       	ldi	r17, 0x00	; 0
    11f4:	3e 01       	movw	r6, r28
    11f6:	ef ed       	ldi	r30, 0xDF	; 223
    11f8:	6e 1a       	sub	r6, r30
    11fa:	ee ef       	ldi	r30, 0xFE	; 254
    11fc:	7e 0a       	sbc	r7, r30
    11fe:	c6 01       	movw	r24, r12
    1200:	0e 94 ef 0f 	call	0x1fde	; 0x1fde <_ZN13LedController5CheckEv>
    1204:	88 23       	and	r24, r24
    1206:	c9 f0       	breq	.+50     	; 0x123a <_ZN10Controller7RunAutoEv+0x92>
    1208:	d7 01       	movw	r26, r14
    120a:	12 96       	adiw	r26, 0x02	; 2
    120c:	2d 91       	ld	r18, X+
    120e:	3c 91       	ld	r19, X
    1210:	13 97       	sbiw	r26, 0x03	; 3
    1212:	ed 91       	ld	r30, X+
    1214:	fc 91       	ld	r31, X
    1216:	c9 01       	movw	r24, r18
    1218:	95 95       	asr	r25
    121a:	87 95       	ror	r24
    121c:	20 ff       	sbrs	r18, 0
    121e:	0a c0       	rjmp	.+20     	; 0x1234 <_ZN10Controller7RunAutoEv+0x8c>
    1220:	de 01       	movw	r26, r28
    1222:	a8 0f       	add	r26, r24
    1224:	b9 1f       	adc	r27, r25
    1226:	2d 91       	ld	r18, X+
    1228:	3c 91       	ld	r19, X
    122a:	e2 0f       	add	r30, r18
    122c:	f3 1f       	adc	r31, r19
    122e:	01 90       	ld	r0, Z+
    1230:	f0 81       	ld	r31, Z
    1232:	e0 2d       	mov	r30, r0
    1234:	8c 0f       	add	r24, r28
    1236:	9d 1f       	adc	r25, r29
    1238:	09 95       	icall
    123a:	c6 01       	movw	r24, r12
    123c:	0e 94 a2 10 	call	0x2144	; 0x2144 <_ZN13LedController6IsDoneEv>
    1240:	88 23       	and	r24, r24
    1242:	39 f0       	breq	.+14     	; 0x1252 <_ZN10Controller7RunAutoEv+0xaa>
    1244:	bf ef       	ldi	r27, 0xFF	; 255
    1246:	8b 1a       	sub	r8, r27
    1248:	9b 0a       	sbc	r9, r27
    124a:	b8 01       	movw	r22, r16
    124c:	c3 01       	movw	r24, r6
    124e:	0e 94 2d 03 	call	0x65a	; 0x65a <_ZN9RunLogger18IncrementLedXCycleEi>
    1252:	0f 5f       	subi	r16, 0xFF	; 255
    1254:	1f 4f       	sbci	r17, 0xFF	; 255
    1256:	e0 e4       	ldi	r30, 0x40	; 64
    1258:	ce 0e       	add	r12, r30
    125a:	d1 1c       	adc	r13, r1
    125c:	f4 e0       	ldi	r31, 0x04	; 4
    125e:	ef 0e       	add	r14, r31
    1260:	f1 1c       	adc	r15, r1
    1262:	03 30       	cpi	r16, 0x03	; 3
    1264:	11 05       	cpc	r17, r1
    1266:	59 f6       	brne	.-106    	; 0x11fe <_ZN10Controller7RunAutoEv+0x56>
    1268:	83 e0       	ldi	r24, 0x03	; 3
    126a:	88 16       	cp	r8, r24
    126c:	91 04       	cpc	r9, r1
    126e:	09 f0       	breq	.+2      	; 0x1272 <_ZN10Controller7RunAutoEv+0xca>
    1270:	44 c0       	rjmp	.+136    	; 0x12fa <_ZN10Controller7RunAutoEv+0x152>
    1272:	83 e0       	ldi	r24, 0x03	; 3
    1274:	d5 01       	movw	r26, r10
    1276:	8c 93       	st	X, r24
    1278:	ce 01       	movw	r24, r28
    127a:	df 91       	pop	r29
    127c:	cf 91       	pop	r28
    127e:	1f 91       	pop	r17
    1280:	0f 91       	pop	r16
    1282:	ff 90       	pop	r15
    1284:	ef 90       	pop	r14
    1286:	df 90       	pop	r13
    1288:	cf 90       	pop	r12
    128a:	bf 90       	pop	r11
    128c:	af 90       	pop	r10
    128e:	9f 90       	pop	r9
    1290:	8f 90       	pop	r8
    1292:	7f 90       	pop	r7
    1294:	6f 90       	pop	r6
    1296:	0c 94 ce 08 	jmp	0x119c	; 0x119c <_ZN10Controller12DisplayUVOffEv>
    129a:	8e 01       	movw	r16, r28
    129c:	0b 5d       	subi	r16, 0xDB	; 219
    129e:	1e 4f       	sbci	r17, 0xFE	; 254
    12a0:	c8 01       	movw	r24, r16
    12a2:	0e 94 6d 11 	call	0x22da	; 0x22da <_ZN5Timer4DoneEv>
    12a6:	88 23       	and	r24, r24
    12a8:	41 f1       	breq	.+80     	; 0x12fa <_ZN10Controller7RunAutoEv+0x152>
    12aa:	ce 01       	movw	r24, r28
    12ac:	8f 5d       	subi	r24, 0xDF	; 223
    12ae:	9e 4f       	sbci	r25, 0xFE	; 254
    12b0:	0e 94 23 03 	call	0x646	; 0x646 <_ZN9RunLogger19IncrementBoardCycleEv>
    12b4:	c8 01       	movw	r24, r16
    12b6:	0e 94 5d 11 	call	0x22ba	; 0x22ba <_ZN5Timer5ResetEv>
    12ba:	f5 01       	movw	r30, r10
    12bc:	10 82       	st	Z, r1
    12be:	ce 01       	movw	r24, r28
    12c0:	0e 94 c8 08 	call	0x1190	; 0x1190 <_ZN10Controller11DisplayUVOnEv>
    12c4:	ce 01       	movw	r24, r28
    12c6:	0e 94 e3 0f 	call	0x1fc6	; 0x1fc6 <_ZN13LedController5StartEv>
    12ca:	ce 01       	movw	r24, r28
    12cc:	80 5c       	subi	r24, 0xC0	; 192
    12ce:	9f 4f       	sbci	r25, 0xFF	; 255
    12d0:	0e 94 e3 0f 	call	0x1fc6	; 0x1fc6 <_ZN13LedController5StartEv>
    12d4:	ce 01       	movw	r24, r28
    12d6:	80 58       	subi	r24, 0x80	; 128
    12d8:	9f 4f       	sbci	r25, 0xFF	; 255
    12da:	df 91       	pop	r29
    12dc:	cf 91       	pop	r28
    12de:	1f 91       	pop	r17
    12e0:	0f 91       	pop	r16
    12e2:	ff 90       	pop	r15
    12e4:	ef 90       	pop	r14
    12e6:	df 90       	pop	r13
    12e8:	cf 90       	pop	r12
    12ea:	bf 90       	pop	r11
    12ec:	af 90       	pop	r10
    12ee:	9f 90       	pop	r9
    12f0:	8f 90       	pop	r8
    12f2:	7f 90       	pop	r7
    12f4:	6f 90       	pop	r6
    12f6:	0c 94 e3 0f 	jmp	0x1fc6	; 0x1fc6 <_ZN13LedController5StartEv>
    12fa:	df 91       	pop	r29
    12fc:	cf 91       	pop	r28
    12fe:	1f 91       	pop	r17
    1300:	0f 91       	pop	r16
    1302:	ff 90       	pop	r15
    1304:	ef 90       	pop	r14
    1306:	df 90       	pop	r13
    1308:	cf 90       	pop	r12
    130a:	bf 90       	pop	r11
    130c:	af 90       	pop	r10
    130e:	9f 90       	pop	r9
    1310:	8f 90       	pop	r8
    1312:	7f 90       	pop	r7
    1314:	6f 90       	pop	r6
    1316:	08 95       	ret

00001318 <_ZN10Controller15Transition_AutoE9Direction>:
    1318:	0f 93       	push	r16
    131a:	1f 93       	push	r17
    131c:	cf 93       	push	r28
    131e:	df 93       	push	r29
    1320:	ec 01       	movw	r28, r24
    1322:	66 23       	and	r22, r22
    1324:	99 f1       	breq	.+102    	; 0x138c <_ZN10Controller15Transition_AutoE9Direction+0x74>
    1326:	61 30       	cpi	r22, 0x01	; 1
    1328:	09 f0       	breq	.+2      	; 0x132c <_ZN10Controller15Transition_AutoE9Direction+0x14>
    132a:	8c c0       	rjmp	.+280    	; 0x1444 <_ZN10Controller15Transition_AutoE9Direction+0x12c>
    132c:	0e 94 96 10 	call	0x212c	; 0x212c <_ZN13LedController4StopEv>
    1330:	ce 01       	movw	r24, r28
    1332:	80 5c       	subi	r24, 0xC0	; 192
    1334:	9f 4f       	sbci	r25, 0xFF	; 255
    1336:	0e 94 96 10 	call	0x212c	; 0x212c <_ZN13LedController4StopEv>
    133a:	ce 01       	movw	r24, r28
    133c:	80 58       	subi	r24, 0x80	; 128
    133e:	9f 4f       	sbci	r25, 0xFF	; 255
    1340:	0e 94 96 10 	call	0x212c	; 0x212c <_ZN13LedController4StopEv>
    1344:	ce 01       	movw	r24, r28
    1346:	0e 94 ce 08 	call	0x119c	; 0x119c <_ZN10Controller12DisplayUVOffEv>
    134a:	fe 01       	movw	r30, r28
    134c:	ea 5a       	subi	r30, 0xAA	; 170
    134e:	fe 4f       	sbci	r31, 0xFE	; 254
    1350:	80 81       	ld	r24, Z
    1352:	fe 01       	movw	r30, r28
    1354:	94 e0       	ldi	r25, 0x04	; 4
    1356:	89 9f       	mul	r24, r25
    1358:	e0 0d       	add	r30, r0
    135a:	f1 1d       	adc	r31, r1
    135c:	11 24       	eor	r1, r1
    135e:	df 01       	movw	r26, r30
    1360:	a1 59       	subi	r26, 0x91	; 145
    1362:	be 4f       	sbci	r27, 0xFE	; 254
    1364:	2d 91       	ld	r18, X+
    1366:	3c 91       	ld	r19, X
    1368:	e3 59       	subi	r30, 0x93	; 147
    136a:	fe 4f       	sbci	r31, 0xFE	; 254
    136c:	c9 01       	movw	r24, r18
    136e:	95 95       	asr	r25
    1370:	87 95       	ror	r24
    1372:	20 ff       	sbrs	r18, 0
    1374:	5c c0       	rjmp	.+184    	; 0x142e <_ZN10Controller15Transition_AutoE9Direction+0x116>
    1376:	de 01       	movw	r26, r28
    1378:	a8 0f       	add	r26, r24
    137a:	b9 1f       	adc	r27, r25
    137c:	4d 91       	ld	r20, X+
    137e:	5c 91       	ld	r21, X
    1380:	20 81       	ld	r18, Z
    1382:	31 81       	ldd	r19, Z+1	; 0x01
    1384:	fa 01       	movw	r30, r20
    1386:	e2 0f       	add	r30, r18
    1388:	f3 1f       	adc	r31, r19
    138a:	51 c0       	rjmp	.+162    	; 0x142e <_ZN10Controller15Transition_AutoE9Direction+0x116>
    138c:	bc 01       	movw	r22, r24
    138e:	6c 5a       	subi	r22, 0xAC	; 172
    1390:	7e 4f       	sbci	r23, 0xFE	; 254
    1392:	8c 01       	movw	r16, r24
    1394:	00 5b       	subi	r16, 0xB0	; 176
    1396:	1e 4f       	sbci	r17, 0xFE	; 254
    1398:	c8 01       	movw	r24, r16
    139a:	0e 94 f5 10 	call	0x21ea	; 0x21ea <_ZN4TaskaSERKS_>
    139e:	81 e0       	ldi	r24, 0x01	; 1
    13a0:	fe 01       	movw	r30, r28
    13a2:	ed 5a       	subi	r30, 0xAD	; 173
    13a4:	fe 4f       	sbci	r31, 0xFE	; 254
    13a6:	80 83       	st	Z, r24
    13a8:	f8 01       	movw	r30, r16
    13aa:	10 82       	st	Z, r1
    13ac:	31 96       	adiw	r30, 0x01	; 1
    13ae:	10 82       	st	Z, r1
    13b0:	ce 01       	movw	r24, r28
    13b2:	8b 5d       	subi	r24, 0xDB	; 219
    13b4:	9e 4f       	sbci	r25, 0xFE	; 254
    13b6:	0e 94 5d 11 	call	0x22ba	; 0x22ba <_ZN5Timer5ResetEv>
    13ba:	ce 01       	movw	r24, r28
    13bc:	0e 94 c8 08 	call	0x1190	; 0x1190 <_ZN10Controller11DisplayUVOnEv>
    13c0:	ce 01       	movw	r24, r28
    13c2:	0e 94 e3 0f 	call	0x1fc6	; 0x1fc6 <_ZN13LedController5StartEv>
    13c6:	ce 01       	movw	r24, r28
    13c8:	80 5c       	subi	r24, 0xC0	; 192
    13ca:	9f 4f       	sbci	r25, 0xFF	; 255
    13cc:	0e 94 e3 0f 	call	0x1fc6	; 0x1fc6 <_ZN13LedController5StartEv>
    13d0:	ce 01       	movw	r24, r28
    13d2:	80 58       	subi	r24, 0x80	; 128
    13d4:	9f 4f       	sbci	r25, 0xFF	; 255
    13d6:	0e 94 e3 0f 	call	0x1fc6	; 0x1fc6 <_ZN13LedController5StartEv>
    13da:	fe 01       	movw	r30, r28
    13dc:	ee 5a       	subi	r30, 0xAE	; 174
    13de:	fe 4f       	sbci	r31, 0xFE	; 254
    13e0:	80 81       	ld	r24, Z
    13e2:	fe 01       	movw	r30, r28
    13e4:	94 e0       	ldi	r25, 0x04	; 4
    13e6:	89 9f       	mul	r24, r25
    13e8:	e0 0d       	add	r30, r0
    13ea:	f1 1d       	adc	r31, r1
    13ec:	11 24       	eor	r1, r1
    13ee:	df 01       	movw	r26, r30
    13f0:	a5 5a       	subi	r26, 0xA5	; 165
    13f2:	be 4f       	sbci	r27, 0xFE	; 254
    13f4:	2d 91       	ld	r18, X+
    13f6:	3c 91       	ld	r19, X
    13f8:	e7 5a       	subi	r30, 0xA7	; 167
    13fa:	fe 4f       	sbci	r31, 0xFE	; 254
    13fc:	c9 01       	movw	r24, r18
    13fe:	95 95       	asr	r25
    1400:	87 95       	ror	r24
    1402:	20 ff       	sbrs	r18, 0
    1404:	0a c0       	rjmp	.+20     	; 0x141a <_ZN10Controller15Transition_AutoE9Direction+0x102>
    1406:	de 01       	movw	r26, r28
    1408:	a8 0f       	add	r26, r24
    140a:	b9 1f       	adc	r27, r25
    140c:	4d 91       	ld	r20, X+
    140e:	5c 91       	ld	r21, X
    1410:	20 81       	ld	r18, Z
    1412:	31 81       	ldd	r19, Z+1	; 0x01
    1414:	fa 01       	movw	r30, r20
    1416:	e2 0f       	add	r30, r18
    1418:	f3 1f       	adc	r31, r19
    141a:	01 90       	ld	r0, Z+
    141c:	f0 81       	ld	r31, Z
    141e:	e0 2d       	mov	r30, r0
    1420:	8c 0f       	add	r24, r28
    1422:	9d 1f       	adc	r25, r29
    1424:	df 91       	pop	r29
    1426:	cf 91       	pop	r28
    1428:	1f 91       	pop	r17
    142a:	0f 91       	pop	r16
    142c:	09 94       	ijmp
    142e:	01 90       	ld	r0, Z+
    1430:	f0 81       	ld	r31, Z
    1432:	e0 2d       	mov	r30, r0
    1434:	60 e0       	ldi	r22, 0x00	; 0
    1436:	8c 0f       	add	r24, r28
    1438:	9d 1f       	adc	r25, r29
    143a:	df 91       	pop	r29
    143c:	cf 91       	pop	r28
    143e:	1f 91       	pop	r17
    1440:	0f 91       	pop	r16
    1442:	09 94       	ijmp
    1444:	df 91       	pop	r29
    1446:	cf 91       	pop	r28
    1448:	1f 91       	pop	r17
    144a:	0f 91       	pop	r16
    144c:	08 95       	ret

0000144e <_ZN10Controller13TurnAllLedOffEv>:
    144e:	85 b1       	in	r24, 0x05	; 5
    1450:	80 67       	ori	r24, 0x70	; 112
    1452:	85 b9       	out	0x05, r24	; 5
    1454:	8b b1       	in	r24, 0x0b	; 11
    1456:	80 6c       	ori	r24, 0xC0	; 192
    1458:	8b b9       	out	0x0b, r24	; 11
    145a:	46 9a       	sbi	0x08, 6	; 8
    145c:	08 95       	ret

0000145e <_ZN10Controller17TurnLEDDisplayOffEv>:
    145e:	8b b1       	in	r24, 0x0b	; 11
    1460:	80 6c       	ori	r24, 0xC0	; 192
    1462:	8b b9       	out	0x0b, r24	; 11
    1464:	46 9a       	sbi	0x08, 6	; 8
    1466:	08 95       	ret

00001468 <_ZN10Controller14Transition_USBE9Direction>:
    1468:	0f 93       	push	r16
    146a:	1f 93       	push	r17
    146c:	cf 93       	push	r28
    146e:	df 93       	push	r29
    1470:	ec 01       	movw	r28, r24
    1472:	66 23       	and	r22, r22
    1474:	21 f0       	breq	.+8      	; 0x147e <_ZN10Controller14Transition_USBE9Direction+0x16>
    1476:	61 30       	cpi	r22, 0x01	; 1
    1478:	09 f4       	brne	.+2      	; 0x147c <_ZN10Controller14Transition_USBE9Direction+0x14>
    147a:	43 c0       	rjmp	.+134    	; 0x1502 <_ZN10Controller14Transition_USBE9Direction+0x9a>
    147c:	72 c0       	rjmp	.+228    	; 0x1562 <_ZN10Controller14Transition_USBE9Direction+0xfa>
    147e:	bc 01       	movw	r22, r24
    1480:	6c 5a       	subi	r22, 0xAC	; 172
    1482:	7e 4f       	sbci	r23, 0xFE	; 254
    1484:	8c 01       	movw	r16, r24
    1486:	00 5b       	subi	r16, 0xB0	; 176
    1488:	1e 4f       	sbci	r17, 0xFE	; 254
    148a:	c8 01       	movw	r24, r16
    148c:	0e 94 f5 10 	call	0x21ea	; 0x21ea <_ZN4TaskaSERKS_>
    1490:	81 e0       	ldi	r24, 0x01	; 1
    1492:	fe 01       	movw	r30, r28
    1494:	ed 5a       	subi	r30, 0xAD	; 173
    1496:	fe 4f       	sbci	r31, 0xFE	; 254
    1498:	80 83       	st	Z, r24
    149a:	f8 01       	movw	r30, r16
    149c:	10 82       	st	Z, r1
    149e:	0e 94 9d 11 	call	0x233a	; 0x233a <m_usb_init>
    14a2:	ce 01       	movw	r24, r28
    14a4:	0e 94 ce 08 	call	0x119c	; 0x119c <_ZN10Controller12DisplayUVOffEv>
    14a8:	ce 01       	movw	r24, r28
    14aa:	0e 94 f5 03 	call	0x7ea	; 0x7ea <_ZN10Controller13DisplayLED3OnEv>
    14ae:	fe 01       	movw	r30, r28
    14b0:	ee 5a       	subi	r30, 0xAE	; 174
    14b2:	fe 4f       	sbci	r31, 0xFE	; 254
    14b4:	80 81       	ld	r24, Z
    14b6:	fe 01       	movw	r30, r28
    14b8:	94 e0       	ldi	r25, 0x04	; 4
    14ba:	89 9f       	mul	r24, r25
    14bc:	e0 0d       	add	r30, r0
    14be:	f1 1d       	adc	r31, r1
    14c0:	11 24       	eor	r1, r1
    14c2:	df 01       	movw	r26, r30
    14c4:	a5 5a       	subi	r26, 0xA5	; 165
    14c6:	be 4f       	sbci	r27, 0xFE	; 254
    14c8:	2d 91       	ld	r18, X+
    14ca:	3c 91       	ld	r19, X
    14cc:	e7 5a       	subi	r30, 0xA7	; 167
    14ce:	fe 4f       	sbci	r31, 0xFE	; 254
    14d0:	c9 01       	movw	r24, r18
    14d2:	95 95       	asr	r25
    14d4:	87 95       	ror	r24
    14d6:	20 ff       	sbrs	r18, 0
    14d8:	0a c0       	rjmp	.+20     	; 0x14ee <_ZN10Controller14Transition_USBE9Direction+0x86>
    14da:	de 01       	movw	r26, r28
    14dc:	a8 0f       	add	r26, r24
    14de:	b9 1f       	adc	r27, r25
    14e0:	4d 91       	ld	r20, X+
    14e2:	5c 91       	ld	r21, X
    14e4:	20 81       	ld	r18, Z
    14e6:	31 81       	ldd	r19, Z+1	; 0x01
    14e8:	fa 01       	movw	r30, r20
    14ea:	e2 0f       	add	r30, r18
    14ec:	f3 1f       	adc	r31, r19
    14ee:	01 90       	ld	r0, Z+
    14f0:	f0 81       	ld	r31, Z
    14f2:	e0 2d       	mov	r30, r0
    14f4:	8c 0f       	add	r24, r28
    14f6:	9d 1f       	adc	r25, r29
    14f8:	df 91       	pop	r29
    14fa:	cf 91       	pop	r28
    14fc:	1f 91       	pop	r17
    14fe:	0f 91       	pop	r16
    1500:	09 94       	ijmp
    1502:	0e 94 27 0a 	call	0x144e	; 0x144e <_ZN10Controller13TurnAllLedOffEv>
    1506:	ce 01       	movw	r24, r28
    1508:	0e 94 2f 0a 	call	0x145e	; 0x145e <_ZN10Controller17TurnLEDDisplayOffEv>
    150c:	fe 01       	movw	r30, r28
    150e:	ea 5a       	subi	r30, 0xAA	; 170
    1510:	fe 4f       	sbci	r31, 0xFE	; 254
    1512:	80 81       	ld	r24, Z
    1514:	fe 01       	movw	r30, r28
    1516:	94 e0       	ldi	r25, 0x04	; 4
    1518:	89 9f       	mul	r24, r25
    151a:	e0 0d       	add	r30, r0
    151c:	f1 1d       	adc	r31, r1
    151e:	11 24       	eor	r1, r1
    1520:	df 01       	movw	r26, r30
    1522:	a1 59       	subi	r26, 0x91	; 145
    1524:	be 4f       	sbci	r27, 0xFE	; 254
    1526:	2d 91       	ld	r18, X+
    1528:	3c 91       	ld	r19, X
    152a:	e3 59       	subi	r30, 0x93	; 147
    152c:	fe 4f       	sbci	r31, 0xFE	; 254
    152e:	c9 01       	movw	r24, r18
    1530:	95 95       	asr	r25
    1532:	87 95       	ror	r24
    1534:	20 ff       	sbrs	r18, 0
    1536:	0a c0       	rjmp	.+20     	; 0x154c <_ZN10Controller14Transition_USBE9Direction+0xe4>
    1538:	de 01       	movw	r26, r28
    153a:	a8 0f       	add	r26, r24
    153c:	b9 1f       	adc	r27, r25
    153e:	4d 91       	ld	r20, X+
    1540:	5c 91       	ld	r21, X
    1542:	20 81       	ld	r18, Z
    1544:	31 81       	ldd	r19, Z+1	; 0x01
    1546:	fa 01       	movw	r30, r20
    1548:	e2 0f       	add	r30, r18
    154a:	f3 1f       	adc	r31, r19
    154c:	01 90       	ld	r0, Z+
    154e:	f0 81       	ld	r31, Z
    1550:	e0 2d       	mov	r30, r0
    1552:	60 e0       	ldi	r22, 0x00	; 0
    1554:	8c 0f       	add	r24, r28
    1556:	9d 1f       	adc	r25, r29
    1558:	df 91       	pop	r29
    155a:	cf 91       	pop	r28
    155c:	1f 91       	pop	r17
    155e:	0f 91       	pop	r16
    1560:	09 94       	ijmp
    1562:	df 91       	pop	r29
    1564:	cf 91       	pop	r28
    1566:	1f 91       	pop	r17
    1568:	0f 91       	pop	r16
    156a:	08 95       	ret

0000156c <_ZN10Controller21TransitionManual_LED1E9Direction>:
    156c:	0f 93       	push	r16
    156e:	1f 93       	push	r17
    1570:	cf 93       	push	r28
    1572:	df 93       	push	r29
    1574:	ec 01       	movw	r28, r24
    1576:	66 23       	and	r22, r22
    1578:	21 f0       	breq	.+8      	; 0x1582 <_ZN10Controller21TransitionManual_LED1E9Direction+0x16>
    157a:	61 30       	cpi	r22, 0x01	; 1
    157c:	09 f4       	brne	.+2      	; 0x1580 <_ZN10Controller21TransitionManual_LED1E9Direction+0x14>
    157e:	44 c0       	rjmp	.+136    	; 0x1608 <_ZN10Controller21TransitionManual_LED1E9Direction+0x9c>
    1580:	76 c0       	rjmp	.+236    	; 0x166e <_ZN10Controller21TransitionManual_LED1E9Direction+0x102>
    1582:	bc 01       	movw	r22, r24
    1584:	6c 5a       	subi	r22, 0xAC	; 172
    1586:	7e 4f       	sbci	r23, 0xFE	; 254
    1588:	8c 01       	movw	r16, r24
    158a:	00 5b       	subi	r16, 0xB0	; 176
    158c:	1e 4f       	sbci	r17, 0xFE	; 254
    158e:	c8 01       	movw	r24, r16
    1590:	0e 94 f5 10 	call	0x21ea	; 0x21ea <_ZN4TaskaSERKS_>
    1594:	81 e0       	ldi	r24, 0x01	; 1
    1596:	fe 01       	movw	r30, r28
    1598:	ed 5a       	subi	r30, 0xAD	; 173
    159a:	fe 4f       	sbci	r31, 0xFE	; 254
    159c:	80 83       	st	Z, r24
    159e:	f8 01       	movw	r30, r16
    15a0:	10 82       	st	Z, r1
    15a2:	ce 01       	movw	r24, r28
    15a4:	0e 94 c8 08 	call	0x1190	; 0x1190 <_ZN10Controller11DisplayUVOnEv>
    15a8:	ce 01       	movw	r24, r28
    15aa:	0e 94 eb 03 	call	0x7d6	; 0x7d6 <_ZN10Controller13DisplayLED1OnEv>
    15ae:	ce 01       	movw	r24, r28
    15b0:	0e 94 7b 10 	call	0x20f6	; 0x20f6 <_ZN13LedController11StartManualEv>
    15b4:	fe 01       	movw	r30, r28
    15b6:	ee 5a       	subi	r30, 0xAE	; 174
    15b8:	fe 4f       	sbci	r31, 0xFE	; 254
    15ba:	80 81       	ld	r24, Z
    15bc:	fe 01       	movw	r30, r28
    15be:	94 e0       	ldi	r25, 0x04	; 4
    15c0:	89 9f       	mul	r24, r25
    15c2:	e0 0d       	add	r30, r0
    15c4:	f1 1d       	adc	r31, r1
    15c6:	11 24       	eor	r1, r1
    15c8:	df 01       	movw	r26, r30
    15ca:	a5 5a       	subi	r26, 0xA5	; 165
    15cc:	be 4f       	sbci	r27, 0xFE	; 254
    15ce:	2d 91       	ld	r18, X+
    15d0:	3c 91       	ld	r19, X
    15d2:	e7 5a       	subi	r30, 0xA7	; 167
    15d4:	fe 4f       	sbci	r31, 0xFE	; 254
    15d6:	c9 01       	movw	r24, r18
    15d8:	95 95       	asr	r25
    15da:	87 95       	ror	r24
    15dc:	20 ff       	sbrs	r18, 0
    15de:	0a c0       	rjmp	.+20     	; 0x15f4 <_ZN10Controller21TransitionManual_LED1E9Direction+0x88>
    15e0:	de 01       	movw	r26, r28
    15e2:	a8 0f       	add	r26, r24
    15e4:	b9 1f       	adc	r27, r25
    15e6:	4d 91       	ld	r20, X+
    15e8:	5c 91       	ld	r21, X
    15ea:	20 81       	ld	r18, Z
    15ec:	31 81       	ldd	r19, Z+1	; 0x01
    15ee:	fa 01       	movw	r30, r20
    15f0:	e2 0f       	add	r30, r18
    15f2:	f3 1f       	adc	r31, r19
    15f4:	01 90       	ld	r0, Z+
    15f6:	f0 81       	ld	r31, Z
    15f8:	e0 2d       	mov	r30, r0
    15fa:	8c 0f       	add	r24, r28
    15fc:	9d 1f       	adc	r25, r29
    15fe:	df 91       	pop	r29
    1600:	cf 91       	pop	r28
    1602:	1f 91       	pop	r17
    1604:	0f 91       	pop	r16
    1606:	09 94       	ijmp
    1608:	0e 94 96 10 	call	0x212c	; 0x212c <_ZN13LedController4StopEv>
    160c:	ce 01       	movw	r24, r28
    160e:	0e 94 ce 08 	call	0x119c	; 0x119c <_ZN10Controller12DisplayUVOffEv>
    1612:	ce 01       	movw	r24, r28
    1614:	0e 94 2f 0a 	call	0x145e	; 0x145e <_ZN10Controller17TurnLEDDisplayOffEv>
    1618:	fe 01       	movw	r30, r28
    161a:	ea 5a       	subi	r30, 0xAA	; 170
    161c:	fe 4f       	sbci	r31, 0xFE	; 254
    161e:	80 81       	ld	r24, Z
    1620:	fe 01       	movw	r30, r28
    1622:	94 e0       	ldi	r25, 0x04	; 4
    1624:	89 9f       	mul	r24, r25
    1626:	e0 0d       	add	r30, r0
    1628:	f1 1d       	adc	r31, r1
    162a:	11 24       	eor	r1, r1
    162c:	df 01       	movw	r26, r30
    162e:	a1 59       	subi	r26, 0x91	; 145
    1630:	be 4f       	sbci	r27, 0xFE	; 254
    1632:	2d 91       	ld	r18, X+
    1634:	3c 91       	ld	r19, X
    1636:	e3 59       	subi	r30, 0x93	; 147
    1638:	fe 4f       	sbci	r31, 0xFE	; 254
    163a:	c9 01       	movw	r24, r18
    163c:	95 95       	asr	r25
    163e:	87 95       	ror	r24
    1640:	20 ff       	sbrs	r18, 0
    1642:	0a c0       	rjmp	.+20     	; 0x1658 <_ZN10Controller21TransitionManual_LED1E9Direction+0xec>
    1644:	de 01       	movw	r26, r28
    1646:	a8 0f       	add	r26, r24
    1648:	b9 1f       	adc	r27, r25
    164a:	4d 91       	ld	r20, X+
    164c:	5c 91       	ld	r21, X
    164e:	20 81       	ld	r18, Z
    1650:	31 81       	ldd	r19, Z+1	; 0x01
    1652:	fa 01       	movw	r30, r20
    1654:	e2 0f       	add	r30, r18
    1656:	f3 1f       	adc	r31, r19
    1658:	01 90       	ld	r0, Z+
    165a:	f0 81       	ld	r31, Z
    165c:	e0 2d       	mov	r30, r0
    165e:	60 e0       	ldi	r22, 0x00	; 0
    1660:	8c 0f       	add	r24, r28
    1662:	9d 1f       	adc	r25, r29
    1664:	df 91       	pop	r29
    1666:	cf 91       	pop	r28
    1668:	1f 91       	pop	r17
    166a:	0f 91       	pop	r16
    166c:	09 94       	ijmp
    166e:	df 91       	pop	r29
    1670:	cf 91       	pop	r28
    1672:	1f 91       	pop	r17
    1674:	0f 91       	pop	r16
    1676:	08 95       	ret

00001678 <_ZN10Controller21TransitionManual_LED2E9Direction>:
    1678:	0f 93       	push	r16
    167a:	1f 93       	push	r17
    167c:	cf 93       	push	r28
    167e:	df 93       	push	r29
    1680:	ec 01       	movw	r28, r24
    1682:	66 23       	and	r22, r22
    1684:	21 f0       	breq	.+8      	; 0x168e <_ZN10Controller21TransitionManual_LED2E9Direction+0x16>
    1686:	61 30       	cpi	r22, 0x01	; 1
    1688:	09 f4       	brne	.+2      	; 0x168c <_ZN10Controller21TransitionManual_LED2E9Direction+0x14>
    168a:	46 c0       	rjmp	.+140    	; 0x1718 <_ZN10Controller21TransitionManual_LED2E9Direction+0xa0>
    168c:	7a c0       	rjmp	.+244    	; 0x1782 <_ZN10Controller21TransitionManual_LED2E9Direction+0x10a>
    168e:	bc 01       	movw	r22, r24
    1690:	6c 5a       	subi	r22, 0xAC	; 172
    1692:	7e 4f       	sbci	r23, 0xFE	; 254
    1694:	8c 01       	movw	r16, r24
    1696:	00 5b       	subi	r16, 0xB0	; 176
    1698:	1e 4f       	sbci	r17, 0xFE	; 254
    169a:	c8 01       	movw	r24, r16
    169c:	0e 94 f5 10 	call	0x21ea	; 0x21ea <_ZN4TaskaSERKS_>
    16a0:	81 e0       	ldi	r24, 0x01	; 1
    16a2:	fe 01       	movw	r30, r28
    16a4:	ed 5a       	subi	r30, 0xAD	; 173
    16a6:	fe 4f       	sbci	r31, 0xFE	; 254
    16a8:	80 83       	st	Z, r24
    16aa:	f8 01       	movw	r30, r16
    16ac:	10 82       	st	Z, r1
    16ae:	ce 01       	movw	r24, r28
    16b0:	0e 94 c8 08 	call	0x1190	; 0x1190 <_ZN10Controller11DisplayUVOnEv>
    16b4:	ce 01       	movw	r24, r28
    16b6:	0e 94 f0 03 	call	0x7e0	; 0x7e0 <_ZN10Controller13DisplayLED2OnEv>
    16ba:	ce 01       	movw	r24, r28
    16bc:	80 5c       	subi	r24, 0xC0	; 192
    16be:	9f 4f       	sbci	r25, 0xFF	; 255
    16c0:	0e 94 7b 10 	call	0x20f6	; 0x20f6 <_ZN13LedController11StartManualEv>
    16c4:	fe 01       	movw	r30, r28
    16c6:	ee 5a       	subi	r30, 0xAE	; 174
    16c8:	fe 4f       	sbci	r31, 0xFE	; 254
    16ca:	80 81       	ld	r24, Z
    16cc:	fe 01       	movw	r30, r28
    16ce:	94 e0       	ldi	r25, 0x04	; 4
    16d0:	89 9f       	mul	r24, r25
    16d2:	e0 0d       	add	r30, r0
    16d4:	f1 1d       	adc	r31, r1
    16d6:	11 24       	eor	r1, r1
    16d8:	df 01       	movw	r26, r30
    16da:	a5 5a       	subi	r26, 0xA5	; 165
    16dc:	be 4f       	sbci	r27, 0xFE	; 254
    16de:	2d 91       	ld	r18, X+
    16e0:	3c 91       	ld	r19, X
    16e2:	e7 5a       	subi	r30, 0xA7	; 167
    16e4:	fe 4f       	sbci	r31, 0xFE	; 254
    16e6:	c9 01       	movw	r24, r18
    16e8:	95 95       	asr	r25
    16ea:	87 95       	ror	r24
    16ec:	20 ff       	sbrs	r18, 0
    16ee:	0a c0       	rjmp	.+20     	; 0x1704 <_ZN10Controller21TransitionManual_LED2E9Direction+0x8c>
    16f0:	de 01       	movw	r26, r28
    16f2:	a8 0f       	add	r26, r24
    16f4:	b9 1f       	adc	r27, r25
    16f6:	4d 91       	ld	r20, X+
    16f8:	5c 91       	ld	r21, X
    16fa:	20 81       	ld	r18, Z
    16fc:	31 81       	ldd	r19, Z+1	; 0x01
    16fe:	fa 01       	movw	r30, r20
    1700:	e2 0f       	add	r30, r18
    1702:	f3 1f       	adc	r31, r19
    1704:	01 90       	ld	r0, Z+
    1706:	f0 81       	ld	r31, Z
    1708:	e0 2d       	mov	r30, r0
    170a:	8c 0f       	add	r24, r28
    170c:	9d 1f       	adc	r25, r29
    170e:	df 91       	pop	r29
    1710:	cf 91       	pop	r28
    1712:	1f 91       	pop	r17
    1714:	0f 91       	pop	r16
    1716:	09 94       	ijmp
    1718:	80 5c       	subi	r24, 0xC0	; 192
    171a:	9f 4f       	sbci	r25, 0xFF	; 255
    171c:	0e 94 96 10 	call	0x212c	; 0x212c <_ZN13LedController4StopEv>
    1720:	ce 01       	movw	r24, r28
    1722:	0e 94 ce 08 	call	0x119c	; 0x119c <_ZN10Controller12DisplayUVOffEv>
    1726:	ce 01       	movw	r24, r28
    1728:	0e 94 2f 0a 	call	0x145e	; 0x145e <_ZN10Controller17TurnLEDDisplayOffEv>
    172c:	fe 01       	movw	r30, r28
    172e:	ea 5a       	subi	r30, 0xAA	; 170
    1730:	fe 4f       	sbci	r31, 0xFE	; 254
    1732:	80 81       	ld	r24, Z
    1734:	fe 01       	movw	r30, r28
    1736:	94 e0       	ldi	r25, 0x04	; 4
    1738:	89 9f       	mul	r24, r25
    173a:	e0 0d       	add	r30, r0
    173c:	f1 1d       	adc	r31, r1
    173e:	11 24       	eor	r1, r1
    1740:	df 01       	movw	r26, r30
    1742:	a1 59       	subi	r26, 0x91	; 145
    1744:	be 4f       	sbci	r27, 0xFE	; 254
    1746:	2d 91       	ld	r18, X+
    1748:	3c 91       	ld	r19, X
    174a:	e3 59       	subi	r30, 0x93	; 147
    174c:	fe 4f       	sbci	r31, 0xFE	; 254
    174e:	c9 01       	movw	r24, r18
    1750:	95 95       	asr	r25
    1752:	87 95       	ror	r24
    1754:	20 ff       	sbrs	r18, 0
    1756:	0a c0       	rjmp	.+20     	; 0x176c <_ZN10Controller21TransitionManual_LED2E9Direction+0xf4>
    1758:	de 01       	movw	r26, r28
    175a:	a8 0f       	add	r26, r24
    175c:	b9 1f       	adc	r27, r25
    175e:	4d 91       	ld	r20, X+
    1760:	5c 91       	ld	r21, X
    1762:	20 81       	ld	r18, Z
    1764:	31 81       	ldd	r19, Z+1	; 0x01
    1766:	fa 01       	movw	r30, r20
    1768:	e2 0f       	add	r30, r18
    176a:	f3 1f       	adc	r31, r19
    176c:	01 90       	ld	r0, Z+
    176e:	f0 81       	ld	r31, Z
    1770:	e0 2d       	mov	r30, r0
    1772:	60 e0       	ldi	r22, 0x00	; 0
    1774:	8c 0f       	add	r24, r28
    1776:	9d 1f       	adc	r25, r29
    1778:	df 91       	pop	r29
    177a:	cf 91       	pop	r28
    177c:	1f 91       	pop	r17
    177e:	0f 91       	pop	r16
    1780:	09 94       	ijmp
    1782:	df 91       	pop	r29
    1784:	cf 91       	pop	r28
    1786:	1f 91       	pop	r17
    1788:	0f 91       	pop	r16
    178a:	08 95       	ret

0000178c <_ZN10Controller21TransitionManual_LED3E9Direction>:
    178c:	0f 93       	push	r16
    178e:	1f 93       	push	r17
    1790:	cf 93       	push	r28
    1792:	df 93       	push	r29
    1794:	ec 01       	movw	r28, r24
    1796:	66 23       	and	r22, r22
    1798:	21 f0       	breq	.+8      	; 0x17a2 <_ZN10Controller21TransitionManual_LED3E9Direction+0x16>
    179a:	61 30       	cpi	r22, 0x01	; 1
    179c:	09 f4       	brne	.+2      	; 0x17a0 <_ZN10Controller21TransitionManual_LED3E9Direction+0x14>
    179e:	46 c0       	rjmp	.+140    	; 0x182c <_ZN10Controller21TransitionManual_LED3E9Direction+0xa0>
    17a0:	7a c0       	rjmp	.+244    	; 0x1896 <_ZN10Controller21TransitionManual_LED3E9Direction+0x10a>
    17a2:	bc 01       	movw	r22, r24
    17a4:	6c 5a       	subi	r22, 0xAC	; 172
    17a6:	7e 4f       	sbci	r23, 0xFE	; 254
    17a8:	8c 01       	movw	r16, r24
    17aa:	00 5b       	subi	r16, 0xB0	; 176
    17ac:	1e 4f       	sbci	r17, 0xFE	; 254
    17ae:	c8 01       	movw	r24, r16
    17b0:	0e 94 f5 10 	call	0x21ea	; 0x21ea <_ZN4TaskaSERKS_>
    17b4:	81 e0       	ldi	r24, 0x01	; 1
    17b6:	fe 01       	movw	r30, r28
    17b8:	ed 5a       	subi	r30, 0xAD	; 173
    17ba:	fe 4f       	sbci	r31, 0xFE	; 254
    17bc:	80 83       	st	Z, r24
    17be:	f8 01       	movw	r30, r16
    17c0:	10 82       	st	Z, r1
    17c2:	ce 01       	movw	r24, r28
    17c4:	0e 94 c8 08 	call	0x1190	; 0x1190 <_ZN10Controller11DisplayUVOnEv>
    17c8:	ce 01       	movw	r24, r28
    17ca:	0e 94 f5 03 	call	0x7ea	; 0x7ea <_ZN10Controller13DisplayLED3OnEv>
    17ce:	ce 01       	movw	r24, r28
    17d0:	80 58       	subi	r24, 0x80	; 128
    17d2:	9f 4f       	sbci	r25, 0xFF	; 255
    17d4:	0e 94 7b 10 	call	0x20f6	; 0x20f6 <_ZN13LedController11StartManualEv>
    17d8:	fe 01       	movw	r30, r28
    17da:	ee 5a       	subi	r30, 0xAE	; 174
    17dc:	fe 4f       	sbci	r31, 0xFE	; 254
    17de:	80 81       	ld	r24, Z
    17e0:	fe 01       	movw	r30, r28
    17e2:	94 e0       	ldi	r25, 0x04	; 4
    17e4:	89 9f       	mul	r24, r25
    17e6:	e0 0d       	add	r30, r0
    17e8:	f1 1d       	adc	r31, r1
    17ea:	11 24       	eor	r1, r1
    17ec:	df 01       	movw	r26, r30
    17ee:	a5 5a       	subi	r26, 0xA5	; 165
    17f0:	be 4f       	sbci	r27, 0xFE	; 254
    17f2:	2d 91       	ld	r18, X+
    17f4:	3c 91       	ld	r19, X
    17f6:	e7 5a       	subi	r30, 0xA7	; 167
    17f8:	fe 4f       	sbci	r31, 0xFE	; 254
    17fa:	c9 01       	movw	r24, r18
    17fc:	95 95       	asr	r25
    17fe:	87 95       	ror	r24
    1800:	20 ff       	sbrs	r18, 0
    1802:	0a c0       	rjmp	.+20     	; 0x1818 <_ZN10Controller21TransitionManual_LED3E9Direction+0x8c>
    1804:	de 01       	movw	r26, r28
    1806:	a8 0f       	add	r26, r24
    1808:	b9 1f       	adc	r27, r25
    180a:	4d 91       	ld	r20, X+
    180c:	5c 91       	ld	r21, X
    180e:	20 81       	ld	r18, Z
    1810:	31 81       	ldd	r19, Z+1	; 0x01
    1812:	fa 01       	movw	r30, r20
    1814:	e2 0f       	add	r30, r18
    1816:	f3 1f       	adc	r31, r19
    1818:	01 90       	ld	r0, Z+
    181a:	f0 81       	ld	r31, Z
    181c:	e0 2d       	mov	r30, r0
    181e:	8c 0f       	add	r24, r28
    1820:	9d 1f       	adc	r25, r29
    1822:	df 91       	pop	r29
    1824:	cf 91       	pop	r28
    1826:	1f 91       	pop	r17
    1828:	0f 91       	pop	r16
    182a:	09 94       	ijmp
    182c:	80 58       	subi	r24, 0x80	; 128
    182e:	9f 4f       	sbci	r25, 0xFF	; 255
    1830:	0e 94 96 10 	call	0x212c	; 0x212c <_ZN13LedController4StopEv>
    1834:	ce 01       	movw	r24, r28
    1836:	0e 94 ce 08 	call	0x119c	; 0x119c <_ZN10Controller12DisplayUVOffEv>
    183a:	ce 01       	movw	r24, r28
    183c:	0e 94 2f 0a 	call	0x145e	; 0x145e <_ZN10Controller17TurnLEDDisplayOffEv>
    1840:	fe 01       	movw	r30, r28
    1842:	ea 5a       	subi	r30, 0xAA	; 170
    1844:	fe 4f       	sbci	r31, 0xFE	; 254
    1846:	80 81       	ld	r24, Z
    1848:	fe 01       	movw	r30, r28
    184a:	94 e0       	ldi	r25, 0x04	; 4
    184c:	89 9f       	mul	r24, r25
    184e:	e0 0d       	add	r30, r0
    1850:	f1 1d       	adc	r31, r1
    1852:	11 24       	eor	r1, r1
    1854:	df 01       	movw	r26, r30
    1856:	a1 59       	subi	r26, 0x91	; 145
    1858:	be 4f       	sbci	r27, 0xFE	; 254
    185a:	2d 91       	ld	r18, X+
    185c:	3c 91       	ld	r19, X
    185e:	e3 59       	subi	r30, 0x93	; 147
    1860:	fe 4f       	sbci	r31, 0xFE	; 254
    1862:	c9 01       	movw	r24, r18
    1864:	95 95       	asr	r25
    1866:	87 95       	ror	r24
    1868:	20 ff       	sbrs	r18, 0
    186a:	0a c0       	rjmp	.+20     	; 0x1880 <_ZN10Controller21TransitionManual_LED3E9Direction+0xf4>
    186c:	de 01       	movw	r26, r28
    186e:	a8 0f       	add	r26, r24
    1870:	b9 1f       	adc	r27, r25
    1872:	4d 91       	ld	r20, X+
    1874:	5c 91       	ld	r21, X
    1876:	20 81       	ld	r18, Z
    1878:	31 81       	ldd	r19, Z+1	; 0x01
    187a:	fa 01       	movw	r30, r20
    187c:	e2 0f       	add	r30, r18
    187e:	f3 1f       	adc	r31, r19
    1880:	01 90       	ld	r0, Z+
    1882:	f0 81       	ld	r31, Z
    1884:	e0 2d       	mov	r30, r0
    1886:	60 e0       	ldi	r22, 0x00	; 0
    1888:	8c 0f       	add	r24, r28
    188a:	9d 1f       	adc	r25, r29
    188c:	df 91       	pop	r29
    188e:	cf 91       	pop	r28
    1890:	1f 91       	pop	r17
    1892:	0f 91       	pop	r16
    1894:	09 94       	ijmp
    1896:	df 91       	pop	r29
    1898:	cf 91       	pop	r28
    189a:	1f 91       	pop	r17
    189c:	0f 91       	pop	r16
    189e:	08 95       	ret

000018a0 <_ZN10Controller6uprintEPKc>:
    18a0:	ef 92       	push	r14
    18a2:	ff 92       	push	r15
    18a4:	0f 93       	push	r16
    18a6:	1f 93       	push	r17
    18a8:	cf 93       	push	r28
    18aa:	df 93       	push	r29
    18ac:	8b 01       	movw	r16, r22
    18ae:	fb 01       	movw	r30, r22
    18b0:	01 90       	ld	r0, Z+
    18b2:	00 20       	and	r0, r0
    18b4:	e9 f7       	brne	.-6      	; 0x18b0 <_ZN10Controller6uprintEPKc+0x10>
    18b6:	31 97       	sbiw	r30, 0x01	; 1
    18b8:	ef 01       	movw	r28, r30
    18ba:	c6 1b       	sub	r28, r22
    18bc:	d7 0b       	sbc	r29, r23
    18be:	7b 01       	movw	r14, r22
    18c0:	c7 01       	movw	r24, r14
    18c2:	80 1b       	sub	r24, r16
    18c4:	91 0b       	sbc	r25, r17
    18c6:	8c 17       	cp	r24, r28
    18c8:	9d 07       	cpc	r25, r29
    18ca:	34 f4       	brge	.+12     	; 0x18d8 <_ZN10Controller6uprintEPKc+0x38>
    18cc:	f7 01       	movw	r30, r14
    18ce:	81 91       	ld	r24, Z+
    18d0:	7f 01       	movw	r14, r30
    18d2:	0e 94 e3 11 	call	0x23c6	; 0x23c6 <m_usb_tx_char>
    18d6:	f4 cf       	rjmp	.-24     	; 0x18c0 <_ZN10Controller6uprintEPKc+0x20>
    18d8:	df 91       	pop	r29
    18da:	cf 91       	pop	r28
    18dc:	1f 91       	pop	r17
    18de:	0f 91       	pop	r16
    18e0:	ff 90       	pop	r15
    18e2:	ef 90       	pop	r14
    18e4:	08 95       	ret

000018e6 <_ZN10Controller6RunUSBEv>:
    18e6:	2f 92       	push	r2
    18e8:	3f 92       	push	r3
    18ea:	4f 92       	push	r4
    18ec:	5f 92       	push	r5
    18ee:	6f 92       	push	r6
    18f0:	7f 92       	push	r7
    18f2:	8f 92       	push	r8
    18f4:	9f 92       	push	r9
    18f6:	af 92       	push	r10
    18f8:	bf 92       	push	r11
    18fa:	cf 92       	push	r12
    18fc:	df 92       	push	r13
    18fe:	ef 92       	push	r14
    1900:	ff 92       	push	r15
    1902:	0f 93       	push	r16
    1904:	1f 93       	push	r17
    1906:	cf 93       	push	r28
    1908:	df 93       	push	r29
    190a:	cd b7       	in	r28, 0x3d	; 61
    190c:	de b7       	in	r29, 0x3e	; 62
    190e:	ce 55       	subi	r28, 0x5E	; 94
    1910:	d1 09       	sbc	r29, r1
    1912:	0f b6       	in	r0, 0x3f	; 63
    1914:	f8 94       	cli
    1916:	de bf       	out	0x3e, r29	; 62
    1918:	0f be       	out	0x3f, r0	; 63
    191a:	cd bf       	out	0x3d, r28	; 61
    191c:	3c 01       	movw	r6, r24
    191e:	2d b7       	in	r18, 0x3d	; 61
    1920:	3e b7       	in	r19, 0x3e	; 62
    1922:	6d 96       	adiw	r28, 0x1d	; 29
    1924:	3f af       	std	Y+63, r19	; 0x3f
    1926:	2e af       	std	Y+62, r18	; 0x3e
    1928:	6d 97       	sbiw	r28, 0x1d	; 29
    192a:	85 53       	subi	r24, 0x35	; 53
    192c:	9f 4f       	sbci	r25, 0xFF	; 255
    192e:	2c 01       	movw	r4, r24
    1930:	0e 94 b6 11 	call	0x236c	; 0x236c <m_usb_isconnected>
    1934:	88 23       	and	r24, r24
    1936:	09 f4       	brne	.+2      	; 0x193a <_ZN10Controller6RunUSBEv+0x54>
    1938:	fa c1       	rjmp	.+1012   	; 0x1d2e <_ZN10Controller6RunUSBEv+0x448>
    193a:	fe 01       	movw	r30, r28
    193c:	b9 96       	adiw	r30, 0x29	; 41
    193e:	2d 96       	adiw	r28, 0x0d	; 13
    1940:	ff af       	std	Y+63, r31	; 0x3f
    1942:	ee af       	std	Y+62, r30	; 0x3e
    1944:	2d 97       	sbiw	r28, 0x0d	; 13
    1946:	9e 01       	movw	r18, r28
    1948:	2b 5d       	subi	r18, 0xDB	; 219
    194a:	3f 4f       	sbci	r19, 0xFF	; 255
    194c:	2f 96       	adiw	r28, 0x0f	; 15
    194e:	3f af       	std	Y+63, r19	; 0x3f
    1950:	2e af       	std	Y+62, r18	; 0x3e
    1952:	2f 97       	sbiw	r28, 0x0f	; 15
    1954:	ce 01       	movw	r24, r28
    1956:	81 96       	adiw	r24, 0x21	; 33
    1958:	61 96       	adiw	r28, 0x11	; 17
    195a:	9f af       	std	Y+63, r25	; 0x3f
    195c:	8e af       	std	Y+62, r24	; 0x3e
    195e:	61 97       	sbiw	r28, 0x11	; 17
    1960:	3d 96       	adiw	r30, 0x0d	; 13
    1962:	63 96       	adiw	r28, 0x13	; 19
    1964:	ff af       	std	Y+63, r31	; 0x3f
    1966:	ee af       	std	Y+62, r30	; 0x3e
    1968:	63 97       	sbiw	r28, 0x13	; 19
    196a:	23 5f       	subi	r18, 0xF3	; 243
    196c:	3f 4f       	sbci	r19, 0xFF	; 255
    196e:	65 96       	adiw	r28, 0x15	; 21
    1970:	3f af       	std	Y+63, r19	; 0x3f
    1972:	2e af       	std	Y+62, r18	; 0x3e
    1974:	65 97       	sbiw	r28, 0x15	; 21
    1976:	8a e3       	ldi	r24, 0x3A	; 58
    1978:	90 e0       	ldi	r25, 0x00	; 0
    197a:	8c 0f       	add	r24, r28
    197c:	9d 1f       	adc	r25, r29
    197e:	09 96       	adiw	r24, 0x09	; 9
    1980:	69 96       	adiw	r28, 0x19	; 25
    1982:	9f af       	std	Y+63, r25	; 0x3f
    1984:	8e af       	std	Y+62, r24	; 0x3e
    1986:	69 97       	sbiw	r28, 0x19	; 25
    1988:	4e 01       	movw	r8, r28
    198a:	97 e4       	ldi	r25, 0x47	; 71
    198c:	89 0e       	add	r8, r25
    198e:	91 1c       	adc	r9, r1
    1990:	13 01       	movw	r2, r6
    1992:	ee ef       	ldi	r30, 0xFE	; 254
    1994:	2e 1a       	sub	r2, r30
    1996:	3e 0a       	sbc	r3, r30
    1998:	83 01       	movw	r16, r6
    199a:	0f 5c       	subi	r16, 0xCF	; 207
    199c:	1e 4f       	sbci	r17, 0xFE	; 254
    199e:	93 01       	movw	r18, r6
    19a0:	2f 5d       	subi	r18, 0xDF	; 223
    19a2:	3e 4f       	sbci	r19, 0xFE	; 254
    19a4:	6f 96       	adiw	r28, 0x1f	; 31
    19a6:	3f af       	std	Y+63, r19	; 0x3f
    19a8:	2e af       	std	Y+62, r18	; 0x3e
    19aa:	6f 97       	sbiw	r28, 0x1f	; 31
    19ac:	c2 01       	movw	r24, r4
    19ae:	0e 94 c6 10 	call	0x218c	; 0x218c <_ZN6Switch8debounceEv>
    19b2:	c2 01       	movw	r24, r4
    19b4:	0e 94 eb 10 	call	0x21d6	; 0x21d6 <_ZN6Switch8switchedEv>
    19b8:	88 23       	and	r24, r24
    19ba:	09 f4       	brne	.+2      	; 0x19be <_ZN10Controller6RunUSBEv+0xd8>
    19bc:	c0 c1       	rjmp	.+896    	; 0x1d3e <_ZN10Controller6RunUSBEv+0x458>
    19be:	0e 94 d4 11 	call	0x23a8	; 0x23a8 <m_usb_rx_available>
    19c2:	88 23       	and	r24, r24
    19c4:	99 f3       	breq	.-26     	; 0x19ac <_ZN10Controller6RunUSBEv+0xc6>
    19c6:	ed b7       	in	r30, 0x3d	; 61
    19c8:	fe b7       	in	r31, 0x3e	; 62
    19ca:	6b 96       	adiw	r28, 0x1b	; 27
    19cc:	ff af       	std	Y+63, r31	; 0x3f
    19ce:	ee af       	std	Y+62, r30	; 0x3e
    19d0:	6b 97       	sbiw	r28, 0x1b	; 27
    19d2:	e8 2e       	mov	r14, r24
    19d4:	f1 2c       	mov	r15, r1
    19d6:	2d b7       	in	r18, 0x3d	; 61
    19d8:	3e b7       	in	r19, 0x3e	; 62
    19da:	2e 19       	sub	r18, r14
    19dc:	3f 09       	sbc	r19, r15
    19de:	0f b6       	in	r0, 0x3f	; 63
    19e0:	f8 94       	cli
    19e2:	3e bf       	out	0x3e, r19	; 62
    19e4:	0f be       	out	0x3f, r0	; 63
    19e6:	2d bf       	out	0x3d, r18	; 61
    19e8:	8d b7       	in	r24, 0x3d	; 61
    19ea:	9e b7       	in	r25, 0x3e	; 62
    19ec:	01 96       	adiw	r24, 0x01	; 1
    19ee:	6c 01       	movw	r12, r24
    19f0:	67 96       	adiw	r28, 0x17	; 23
    19f2:	9f af       	std	Y+63, r25	; 0x3f
    19f4:	8e af       	std	Y+62, r24	; 0x3e
    19f6:	67 97       	sbiw	r28, 0x17	; 23
    19f8:	a1 2c       	mov	r10, r1
    19fa:	b1 2c       	mov	r11, r1
    19fc:	0e 94 b9 11 	call	0x2372	; 0x2372 <m_usb_rx_char>
    1a00:	8d 30       	cpi	r24, 0x0D	; 13
    1a02:	81 f0       	breq	.+32     	; 0x1a24 <_ZN10Controller6RunUSBEv+0x13e>
    1a04:	ea 14       	cp	r14, r10
    1a06:	fb 04       	cpc	r15, r11
    1a08:	84 f0       	brlt	.+32     	; 0x1a2a <_ZN10Controller6RunUSBEv+0x144>
    1a0a:	67 96       	adiw	r28, 0x17	; 23
    1a0c:	ee ad       	ldd	r30, Y+62	; 0x3e
    1a0e:	ff ad       	ldd	r31, Y+63	; 0x3f
    1a10:	67 97       	sbiw	r28, 0x17	; 23
    1a12:	81 93       	st	Z+, r24
    1a14:	67 96       	adiw	r28, 0x17	; 23
    1a16:	ff af       	std	Y+63, r31	; 0x3f
    1a18:	ee af       	std	Y+62, r30	; 0x3e
    1a1a:	67 97       	sbiw	r28, 0x17	; 23
    1a1c:	ff ef       	ldi	r31, 0xFF	; 255
    1a1e:	af 1a       	sub	r10, r31
    1a20:	bf 0a       	sbc	r11, r31
    1a22:	ec cf       	rjmp	.-40     	; 0x19fc <_ZN10Controller6RunUSBEv+0x116>
    1a24:	ab 28       	or	r10, r11
    1a26:	09 f4       	brne	.+2      	; 0x1a2a <_ZN10Controller6RunUSBEv+0x144>
    1a28:	78 c1       	rjmp	.+752    	; 0x1d1a <_ZN10Controller6RunUSBEv+0x434>
    1a2a:	f6 01       	movw	r30, r12
    1a2c:	80 81       	ld	r24, Z
    1a2e:	80 37       	cpi	r24, 0x70	; 112
    1a30:	09 f4       	brne	.+2      	; 0x1a34 <_ZN10Controller6RunUSBEv+0x14e>
    1a32:	e5 c0       	rjmp	.+458    	; 0x1bfe <_ZN10Controller6RunUSBEv+0x318>
    1a34:	82 37       	cpi	r24, 0x72	; 114
    1a36:	d1 f0       	breq	.+52     	; 0x1a6c <_ZN10Controller6RunUSBEv+0x186>
    1a38:	8c 36       	cpi	r24, 0x6C	; 108
    1a3a:	09 f0       	breq	.+2      	; 0x1a3e <_ZN10Controller6RunUSBEv+0x158>
    1a3c:	6e c1       	rjmp	.+732    	; 0x1d1a <_ZN10Controller6RunUSBEv+0x434>
    1a3e:	cd b6       	in	r12, 0x3d	; 61
    1a40:	de b6       	in	r13, 0x3e	; 62
    1a42:	6f 96       	adiw	r28, 0x1f	; 31
    1a44:	6e ad       	ldd	r22, Y+62	; 0x3e
    1a46:	7f ad       	ldd	r23, Y+63	; 0x3f
    1a48:	6f 97       	sbiw	r28, 0x1f	; 31
    1a4a:	ce 01       	movw	r24, r28
    1a4c:	80 96       	adiw	r24, 0x20	; 32
    1a4e:	0e 94 07 03 	call	0x60e	; 0x60e <_ZN9RunLogger12GetStoredLogEv>
    1a52:	89 e5       	ldi	r24, 0x59	; 89
    1a54:	91 e0       	ldi	r25, 0x01	; 1
    1a56:	9f 93       	push	r25
    1a58:	8f 93       	push	r24
    1a5a:	ce 01       	movw	r24, r28
    1a5c:	01 96       	adiw	r24, 0x01	; 1
    1a5e:	7c 01       	movw	r14, r24
    1a60:	9f 93       	push	r25
    1a62:	8f 93       	push	r24
    1a64:	0e 94 e7 15 	call	0x2bce	; 0x2bce <sprintf>
    1a68:	b7 01       	movw	r22, r14
    1a6a:	4f c1       	rjmp	.+670    	; 0x1d0a <_ZN10Controller6RunUSBEv+0x424>
    1a6c:	cd b6       	in	r12, 0x3d	; 61
    1a6e:	de b6       	in	r13, 0x3e	; 62
    1a70:	b1 01       	movw	r22, r2
    1a72:	ce 01       	movw	r24, r28
    1a74:	01 96       	adiw	r24, 0x01	; 1
    1a76:	0e 94 a2 02 	call	0x544	; 0x544 <_ZN12RecipeAccess22GetInMemoryBoardRecipeEv>
    1a7a:	89 81       	ldd	r24, Y+1	; 0x01
    1a7c:	9a 81       	ldd	r25, Y+2	; 0x02
    1a7e:	ab 81       	ldd	r26, Y+3	; 0x03
    1a80:	bc 81       	ldd	r27, Y+4	; 0x04
    1a82:	f8 01       	movw	r30, r16
    1a84:	80 83       	st	Z, r24
    1a86:	91 83       	std	Z+1, r25	; 0x01
    1a88:	a2 83       	std	Z+2, r26	; 0x02
    1a8a:	b3 83       	std	Z+3, r27	; 0x03
    1a8c:	8d 81       	ldd	r24, Y+5	; 0x05
    1a8e:	9e 81       	ldd	r25, Y+6	; 0x06
    1a90:	af 81       	ldd	r26, Y+7	; 0x07
    1a92:	b8 85       	ldd	r27, Y+8	; 0x08
    1a94:	84 83       	std	Z+4, r24	; 0x04
    1a96:	95 83       	std	Z+5, r25	; 0x05
    1a98:	a6 83       	std	Z+6, r26	; 0x06
    1a9a:	b7 83       	std	Z+7, r27	; 0x07
    1a9c:	89 85       	ldd	r24, Y+9	; 0x09
    1a9e:	9a 85       	ldd	r25, Y+10	; 0x0a
    1aa0:	ab 85       	ldd	r26, Y+11	; 0x0b
    1aa2:	bc 85       	ldd	r27, Y+12	; 0x0c
    1aa4:	80 87       	std	Z+8, r24	; 0x08
    1aa6:	91 87       	std	Z+9, r25	; 0x09
    1aa8:	a2 87       	std	Z+10, r26	; 0x0a
    1aaa:	b3 87       	std	Z+11, r27	; 0x0b
    1aac:	8d 85       	ldd	r24, Y+13	; 0x0d
    1aae:	84 87       	std	Z+12, r24	; 0x0c
    1ab0:	8e 85       	ldd	r24, Y+14	; 0x0e
    1ab2:	9f 85       	ldd	r25, Y+15	; 0x0f
    1ab4:	a8 89       	ldd	r26, Y+16	; 0x10
    1ab6:	b9 89       	ldd	r27, Y+17	; 0x11
    1ab8:	85 87       	std	Z+13, r24	; 0x0d
    1aba:	96 87       	std	Z+14, r25	; 0x0e
    1abc:	a7 87       	std	Z+15, r26	; 0x0f
    1abe:	b0 8b       	std	Z+16, r27	; 0x10
    1ac0:	8a 89       	ldd	r24, Y+18	; 0x12
    1ac2:	9b 89       	ldd	r25, Y+19	; 0x13
    1ac4:	ac 89       	ldd	r26, Y+20	; 0x14
    1ac6:	bd 89       	ldd	r27, Y+21	; 0x15
    1ac8:	81 8b       	std	Z+17, r24	; 0x11
    1aca:	92 8b       	std	Z+18, r25	; 0x12
    1acc:	a3 8b       	std	Z+19, r26	; 0x13
    1ace:	b4 8b       	std	Z+20, r27	; 0x14
    1ad0:	8e 89       	ldd	r24, Y+22	; 0x16
    1ad2:	85 8b       	std	Z+21, r24	; 0x15
    1ad4:	8f 89       	ldd	r24, Y+23	; 0x17
    1ad6:	98 8d       	ldd	r25, Y+24	; 0x18
    1ad8:	a9 8d       	ldd	r26, Y+25	; 0x19
    1ada:	ba 8d       	ldd	r27, Y+26	; 0x1a
    1adc:	86 8b       	std	Z+22, r24	; 0x16
    1ade:	97 8b       	std	Z+23, r25	; 0x17
    1ae0:	a0 8f       	std	Z+24, r26	; 0x18
    1ae2:	b1 8f       	std	Z+25, r27	; 0x19
    1ae4:	8b 8d       	ldd	r24, Y+27	; 0x1b
    1ae6:	9c 8d       	ldd	r25, Y+28	; 0x1c
    1ae8:	ad 8d       	ldd	r26, Y+29	; 0x1d
    1aea:	be 8d       	ldd	r27, Y+30	; 0x1e
    1aec:	82 8f       	std	Z+26, r24	; 0x1a
    1aee:	93 8f       	std	Z+27, r25	; 0x1b
    1af0:	a4 8f       	std	Z+28, r26	; 0x1c
    1af2:	b5 8f       	std	Z+29, r27	; 0x1d
    1af4:	8f 8d       	ldd	r24, Y+31	; 0x1f
    1af6:	86 8f       	std	Z+30, r24	; 0x1e
    1af8:	41 e0       	ldi	r20, 0x01	; 1
    1afa:	b8 01       	movw	r22, r16
    1afc:	ce 01       	movw	r24, r28
    1afe:	8d 96       	adiw	r24, 0x2d	; 45
    1b00:	0e 94 1c 04 	call	0x838	; 0x838 <_ZN11BoardRecipe12GetLedRecipeE3LED>
    1b04:	42 e0       	ldi	r20, 0x02	; 2
    1b06:	b8 01       	movw	r22, r16
    1b08:	ce 01       	movw	r24, r28
    1b0a:	80 96       	adiw	r24, 0x20	; 32
    1b0c:	0e 94 1c 04 	call	0x838	; 0x838 <_ZN11BoardRecipe12GetLedRecipeE3LED>
    1b10:	43 e0       	ldi	r20, 0x03	; 3
    1b12:	b8 01       	movw	r22, r16
    1b14:	ce 01       	movw	r24, r28
    1b16:	01 96       	adiw	r24, 0x01	; 1
    1b18:	0e 94 1c 04 	call	0x838	; 0x838 <_ZN11BoardRecipe12GetLedRecipeE3LED>
    1b1c:	2d b7       	in	r18, 0x3d	; 61
    1b1e:	3e b7       	in	r19, 0x3e	; 62
    1b20:	2c 56       	subi	r18, 0x6C	; 108
    1b22:	31 09       	sbc	r19, r1
    1b24:	0f b6       	in	r0, 0x3f	; 63
    1b26:	f8 94       	cli
    1b28:	3e bf       	out	0x3e, r19	; 62
    1b2a:	0f be       	out	0x3f, r0	; 63
    1b2c:	2d bf       	out	0x3d, r18	; 61
    1b2e:	8d b7       	in	r24, 0x3d	; 61
    1b30:	9e b7       	in	r25, 0x3e	; 62
    1b32:	01 96       	adiw	r24, 0x01	; 1
    1b34:	7c 01       	movw	r14, r24
    1b36:	8d 85       	ldd	r24, Y+13	; 0x0d
    1b38:	8f 93       	push	r24
    1b3a:	8c 85       	ldd	r24, Y+12	; 0x0c
    1b3c:	8f 93       	push	r24
    1b3e:	8b 85       	ldd	r24, Y+11	; 0x0b
    1b40:	8f 93       	push	r24
    1b42:	8a 85       	ldd	r24, Y+10	; 0x0a
    1b44:	8f 93       	push	r24
    1b46:	89 85       	ldd	r24, Y+9	; 0x09
    1b48:	8f 93       	push	r24
    1b4a:	88 85       	ldd	r24, Y+8	; 0x08
    1b4c:	8f 93       	push	r24
    1b4e:	8f 81       	ldd	r24, Y+7	; 0x07
    1b50:	8f 93       	push	r24
    1b52:	8e 81       	ldd	r24, Y+6	; 0x06
    1b54:	8f 93       	push	r24
    1b56:	8d 81       	ldd	r24, Y+5	; 0x05
    1b58:	8f 93       	push	r24
    1b5a:	8c 81       	ldd	r24, Y+4	; 0x04
    1b5c:	8f 93       	push	r24
    1b5e:	8b 81       	ldd	r24, Y+3	; 0x03
    1b60:	8f 93       	push	r24
    1b62:	8a 81       	ldd	r24, Y+2	; 0x02
    1b64:	8f 93       	push	r24
    1b66:	8c a5       	ldd	r24, Y+44	; 0x2c
    1b68:	8f 93       	push	r24
    1b6a:	8b a5       	ldd	r24, Y+43	; 0x2b
    1b6c:	8f 93       	push	r24
    1b6e:	8a a5       	ldd	r24, Y+42	; 0x2a
    1b70:	8f 93       	push	r24
    1b72:	89 a5       	ldd	r24, Y+41	; 0x29
    1b74:	8f 93       	push	r24
    1b76:	88 a5       	ldd	r24, Y+40	; 0x28
    1b78:	8f 93       	push	r24
    1b7a:	8f a1       	ldd	r24, Y+39	; 0x27
    1b7c:	8f 93       	push	r24
    1b7e:	8e a1       	ldd	r24, Y+38	; 0x26
    1b80:	8f 93       	push	r24
    1b82:	8d a1       	ldd	r24, Y+37	; 0x25
    1b84:	8f 93       	push	r24
    1b86:	8c a1       	ldd	r24, Y+36	; 0x24
    1b88:	8f 93       	push	r24
    1b8a:	8b a1       	ldd	r24, Y+35	; 0x23
    1b8c:	8f 93       	push	r24
    1b8e:	8a a1       	ldd	r24, Y+34	; 0x22
    1b90:	8f 93       	push	r24
    1b92:	89 a1       	ldd	r24, Y+33	; 0x21
    1b94:	8f 93       	push	r24
    1b96:	89 ad       	ldd	r24, Y+57	; 0x39
    1b98:	8f 93       	push	r24
    1b9a:	88 ad       	ldd	r24, Y+56	; 0x38
    1b9c:	8f 93       	push	r24
    1b9e:	8f a9       	ldd	r24, Y+55	; 0x37
    1ba0:	8f 93       	push	r24
    1ba2:	8e a9       	ldd	r24, Y+54	; 0x36
    1ba4:	8f 93       	push	r24
    1ba6:	8d a9       	ldd	r24, Y+53	; 0x35
    1ba8:	8f 93       	push	r24
    1baa:	8c a9       	ldd	r24, Y+52	; 0x34
    1bac:	8f 93       	push	r24
    1bae:	8b a9       	ldd	r24, Y+51	; 0x33
    1bb0:	8f 93       	push	r24
    1bb2:	8a a9       	ldd	r24, Y+50	; 0x32
    1bb4:	8f 93       	push	r24
    1bb6:	89 a9       	ldd	r24, Y+49	; 0x31
    1bb8:	8f 93       	push	r24
    1bba:	88 a9       	ldd	r24, Y+48	; 0x30
    1bbc:	8f 93       	push	r24
    1bbe:	8f a5       	ldd	r24, Y+47	; 0x2f
    1bc0:	8f 93       	push	r24
    1bc2:	8e a5       	ldd	r24, Y+46	; 0x2e
    1bc4:	8f 93       	push	r24
    1bc6:	f8 01       	movw	r30, r16
    1bc8:	83 81       	ldd	r24, Z+3	; 0x03
    1bca:	8f 93       	push	r24
    1bcc:	82 81       	ldd	r24, Z+2	; 0x02
    1bce:	8f 93       	push	r24
    1bd0:	81 81       	ldd	r24, Z+1	; 0x01
    1bd2:	8f 93       	push	r24
    1bd4:	80 81       	ld	r24, Z
    1bd6:	8f 93       	push	r24
    1bd8:	87 e0       	ldi	r24, 0x07	; 7
    1bda:	91 e0       	ldi	r25, 0x01	; 1
    1bdc:	9f 93       	push	r25
    1bde:	8f 93       	push	r24
    1be0:	ff 92       	push	r15
    1be2:	ef 92       	push	r14
    1be4:	0e 94 e7 15 	call	0x2bce	; 0x2bce <sprintf>
    1be8:	2d b7       	in	r18, 0x3d	; 61
    1bea:	3e b7       	in	r19, 0x3e	; 62
    1bec:	24 5d       	subi	r18, 0xD4	; 212
    1bee:	3f 4f       	sbci	r19, 0xFF	; 255
    1bf0:	0f b6       	in	r0, 0x3f	; 63
    1bf2:	f8 94       	cli
    1bf4:	3e bf       	out	0x3e, r19	; 62
    1bf6:	0f be       	out	0x3f, r0	; 63
    1bf8:	2d bf       	out	0x3d, r18	; 61
    1bfa:	b7 01       	movw	r22, r14
    1bfc:	86 c0       	rjmp	.+268    	; 0x1d0a <_ZN10Controller6RunUSBEv+0x424>
    1bfe:	ce 01       	movw	r24, r28
    1c00:	ca 96       	adiw	r24, 0x3a	; 58
    1c02:	0e 94 04 04 	call	0x808	; 0x808 <_ZN9LedRecipeC1Ev>
    1c06:	ce 01       	movw	r24, r28
    1c08:	8d 96       	adiw	r24, 0x2d	; 45
    1c0a:	0e 94 04 04 	call	0x808	; 0x808 <_ZN9LedRecipeC1Ev>
    1c0e:	ce 01       	movw	r24, r28
    1c10:	80 96       	adiw	r24, 0x20	; 32
    1c12:	0e 94 04 04 	call	0x808	; 0x808 <_ZN9LedRecipeC1Ev>
    1c16:	2d 96       	adiw	r28, 0x0d	; 13
    1c18:	3f ad       	ldd	r19, Y+63	; 0x3f
    1c1a:	2d 97       	sbiw	r28, 0x0d	; 13
    1c1c:	3f 93       	push	r19
    1c1e:	2c 96       	adiw	r28, 0x0c	; 12
    1c20:	8f ad       	ldd	r24, Y+63	; 0x3f
    1c22:	2c 97       	sbiw	r28, 0x0c	; 12
    1c24:	8f 93       	push	r24
    1c26:	2f 96       	adiw	r28, 0x0f	; 15
    1c28:	9f ad       	ldd	r25, Y+63	; 0x3f
    1c2a:	2f 97       	sbiw	r28, 0x0f	; 15
    1c2c:	9f 93       	push	r25
    1c2e:	2e 96       	adiw	r28, 0x0e	; 14
    1c30:	ef ad       	ldd	r30, Y+63	; 0x3f
    1c32:	2e 97       	sbiw	r28, 0x0e	; 14
    1c34:	ef 93       	push	r30
    1c36:	61 96       	adiw	r28, 0x11	; 17
    1c38:	ff ad       	ldd	r31, Y+63	; 0x3f
    1c3a:	61 97       	sbiw	r28, 0x11	; 17
    1c3c:	ff 93       	push	r31
    1c3e:	60 96       	adiw	r28, 0x10	; 16
    1c40:	2f ad       	ldd	r18, Y+63	; 0x3f
    1c42:	60 97       	sbiw	r28, 0x10	; 16
    1c44:	2f 93       	push	r18
    1c46:	63 96       	adiw	r28, 0x13	; 19
    1c48:	3f ad       	ldd	r19, Y+63	; 0x3f
    1c4a:	63 97       	sbiw	r28, 0x13	; 19
    1c4c:	3f 93       	push	r19
    1c4e:	62 96       	adiw	r28, 0x12	; 18
    1c50:	8f ad       	ldd	r24, Y+63	; 0x3f
    1c52:	62 97       	sbiw	r28, 0x12	; 18
    1c54:	8f 93       	push	r24
    1c56:	65 96       	adiw	r28, 0x15	; 21
    1c58:	9f ad       	ldd	r25, Y+63	; 0x3f
    1c5a:	65 97       	sbiw	r28, 0x15	; 21
    1c5c:	9f 93       	push	r25
    1c5e:	64 96       	adiw	r28, 0x14	; 20
    1c60:	ef ad       	ldd	r30, Y+63	; 0x3f
    1c62:	64 97       	sbiw	r28, 0x14	; 20
    1c64:	ef 93       	push	r30
    1c66:	ce 01       	movw	r24, r28
    1c68:	8e 96       	adiw	r24, 0x2e	; 46
    1c6a:	9f 93       	push	r25
    1c6c:	8f 93       	push	r24
    1c6e:	69 96       	adiw	r28, 0x19	; 25
    1c70:	ff ad       	ldd	r31, Y+63	; 0x3f
    1c72:	69 97       	sbiw	r28, 0x19	; 25
    1c74:	ff 93       	push	r31
    1c76:	68 96       	adiw	r28, 0x18	; 24
    1c78:	2f ad       	ldd	r18, Y+63	; 0x3f
    1c7a:	68 97       	sbiw	r28, 0x18	; 24
    1c7c:	2f 93       	push	r18
    1c7e:	41 96       	adiw	r24, 0x11	; 17
    1c80:	9f 93       	push	r25
    1c82:	8f 93       	push	r24
    1c84:	04 97       	sbiw	r24, 0x04	; 4
    1c86:	9f 93       	push	r25
    1c88:	8f 93       	push	r24
    1c8a:	9f 92       	push	r9
    1c8c:	8f 92       	push	r8
    1c8e:	8e e2       	ldi	r24, 0x2E	; 46
    1c90:	91 e0       	ldi	r25, 0x01	; 1
    1c92:	9f 93       	push	r25
    1c94:	8f 93       	push	r24
    1c96:	df 92       	push	r13
    1c98:	cf 92       	push	r12
    1c9a:	0e 94 09 16 	call	0x2c12	; 0x2c12 <sscanf>
    1c9e:	f4 01       	movw	r30, r8
    1ca0:	80 81       	ld	r24, Z
    1ca2:	91 81       	ldd	r25, Z+1	; 0x01
    1ca4:	a2 81       	ldd	r26, Z+2	; 0x02
    1ca6:	b3 81       	ldd	r27, Z+3	; 0x03
    1ca8:	89 83       	std	Y+1, r24	; 0x01
    1caa:	9a 83       	std	Y+2, r25	; 0x02
    1cac:	ab 83       	std	Y+3, r26	; 0x03
    1cae:	bc 83       	std	Y+4, r27	; 0x04
    1cb0:	be 01       	movw	r22, r28
    1cb2:	66 5c       	subi	r22, 0xC6	; 198
    1cb4:	7f 4f       	sbci	r23, 0xFF	; 255
    1cb6:	ce 01       	movw	r24, r28
    1cb8:	01 96       	adiw	r24, 0x01	; 1
    1cba:	0e 94 61 03 	call	0x6c2	; 0x6c2 <_ZN11BoardRecipe12SetLedRecipeERK9LedRecipe>
    1cbe:	be 01       	movw	r22, r28
    1cc0:	63 5d       	subi	r22, 0xD3	; 211
    1cc2:	7f 4f       	sbci	r23, 0xFF	; 255
    1cc4:	ce 01       	movw	r24, r28
    1cc6:	01 96       	adiw	r24, 0x01	; 1
    1cc8:	0e 94 61 03 	call	0x6c2	; 0x6c2 <_ZN11BoardRecipe12SetLedRecipeERK9LedRecipe>
    1ccc:	be 01       	movw	r22, r28
    1cce:	60 5e       	subi	r22, 0xE0	; 224
    1cd0:	7f 4f       	sbci	r23, 0xFF	; 255
    1cd2:	ce 01       	movw	r24, r28
    1cd4:	01 96       	adiw	r24, 0x01	; 1
    1cd6:	0e 94 61 03 	call	0x6c2	; 0x6c2 <_ZN11BoardRecipe12SetLedRecipeERK9LedRecipe>
    1cda:	be 01       	movw	r22, r28
    1cdc:	6f 5f       	subi	r22, 0xFF	; 255
    1cde:	7f 4f       	sbci	r23, 0xFF	; 255
    1ce0:	c1 01       	movw	r24, r2
    1ce2:	0e 94 4f 02 	call	0x49e	; 0x49e <_ZN12RecipeAccess25UpdateInMemoryBoardRecipeERK11BoardRecipe>
    1ce6:	c1 01       	movw	r24, r2
    1ce8:	0e 94 49 02 	call	0x492	; 0x492 <_ZN12RecipeAccess10SaveRecipeEv>
    1cec:	66 e5       	ldi	r22, 0x56	; 86
    1cee:	71 e0       	ldi	r23, 0x01	; 1
    1cf0:	c3 01       	movw	r24, r6
    1cf2:	0e 94 50 0c 	call	0x18a0	; 0x18a0 <_ZN10Controller6uprintEPKc>
    1cf6:	2d b7       	in	r18, 0x3d	; 61
    1cf8:	3e b7       	in	r19, 0x3e	; 62
    1cfa:	28 5e       	subi	r18, 0xE8	; 232
    1cfc:	3f 4f       	sbci	r19, 0xFF	; 255
    1cfe:	0f b6       	in	r0, 0x3f	; 63
    1d00:	f8 94       	cli
    1d02:	3e bf       	out	0x3e, r19	; 62
    1d04:	0f be       	out	0x3f, r0	; 63
    1d06:	2d bf       	out	0x3d, r18	; 61
    1d08:	08 c0       	rjmp	.+16     	; 0x1d1a <_ZN10Controller6RunUSBEv+0x434>
    1d0a:	c3 01       	movw	r24, r6
    1d0c:	0e 94 50 0c 	call	0x18a0	; 0x18a0 <_ZN10Controller6uprintEPKc>
    1d10:	0f b6       	in	r0, 0x3f	; 63
    1d12:	f8 94       	cli
    1d14:	de be       	out	0x3e, r13	; 62
    1d16:	0f be       	out	0x3f, r0	; 63
    1d18:	cd be       	out	0x3d, r12	; 61
    1d1a:	6b 96       	adiw	r28, 0x1b	; 27
    1d1c:	ee ad       	ldd	r30, Y+62	; 0x3e
    1d1e:	ff ad       	ldd	r31, Y+63	; 0x3f
    1d20:	6b 97       	sbiw	r28, 0x1b	; 27
    1d22:	0f b6       	in	r0, 0x3f	; 63
    1d24:	f8 94       	cli
    1d26:	fe bf       	out	0x3e, r31	; 62
    1d28:	0f be       	out	0x3f, r0	; 63
    1d2a:	ed bf       	out	0x3d, r30	; 61
    1d2c:	3f ce       	rjmp	.-898    	; 0x19ac <_ZN10Controller6RunUSBEv+0xc6>
    1d2e:	c2 01       	movw	r24, r4
    1d30:	0e 94 c6 10 	call	0x218c	; 0x218c <_ZN6Switch8debounceEv>
    1d34:	c2 01       	movw	r24, r4
    1d36:	0e 94 eb 10 	call	0x21d6	; 0x21d6 <_ZN6Switch8switchedEv>
    1d3a:	81 11       	cpse	r24, r1
    1d3c:	f9 cd       	rjmp	.-1038   	; 0x1930 <_ZN10Controller6RunUSBEv+0x4a>
    1d3e:	6d 96       	adiw	r28, 0x1d	; 29
    1d40:	2e ad       	ldd	r18, Y+62	; 0x3e
    1d42:	3f ad       	ldd	r19, Y+63	; 0x3f
    1d44:	6d 97       	sbiw	r28, 0x1d	; 29
    1d46:	0f b6       	in	r0, 0x3f	; 63
    1d48:	f8 94       	cli
    1d4a:	3e bf       	out	0x3e, r19	; 62
    1d4c:	0f be       	out	0x3f, r0	; 63
    1d4e:	2d bf       	out	0x3d, r18	; 61
    1d50:	c2 5a       	subi	r28, 0xA2	; 162
    1d52:	df 4f       	sbci	r29, 0xFF	; 255
    1d54:	0f b6       	in	r0, 0x3f	; 63
    1d56:	f8 94       	cli
    1d58:	de bf       	out	0x3e, r29	; 62
    1d5a:	0f be       	out	0x3f, r0	; 63
    1d5c:	cd bf       	out	0x3d, r28	; 61
    1d5e:	df 91       	pop	r29
    1d60:	cf 91       	pop	r28
    1d62:	1f 91       	pop	r17
    1d64:	0f 91       	pop	r16
    1d66:	ff 90       	pop	r15
    1d68:	ef 90       	pop	r14
    1d6a:	df 90       	pop	r13
    1d6c:	cf 90       	pop	r12
    1d6e:	bf 90       	pop	r11
    1d70:	af 90       	pop	r10
    1d72:	9f 90       	pop	r9
    1d74:	8f 90       	pop	r8
    1d76:	7f 90       	pop	r7
    1d78:	6f 90       	pop	r6
    1d7a:	5f 90       	pop	r5
    1d7c:	4f 90       	pop	r4
    1d7e:	3f 90       	pop	r3
    1d80:	2f 90       	pop	r2
    1d82:	08 95       	ret

00001d84 <_ZN13LedControllerC1Ev>:
    1d84:	cf 93       	push	r28
    1d86:	df 93       	push	r29
    1d88:	ec 01       	movw	r28, r24
    1d8a:	0e 94 4c 11 	call	0x2298	; 0x2298 <_ZN5TimerC1Ev>
    1d8e:	ce 01       	movw	r24, r28
    1d90:	0c 96       	adiw	r24, 0x0c	; 12
    1d92:	0e 94 4c 11 	call	0x2298	; 0x2298 <_ZN5TimerC1Ev>
    1d96:	ce 01       	movw	r24, r28
    1d98:	48 96       	adiw	r24, 0x18	; 24
    1d9a:	0e 94 4c 11 	call	0x2298	; 0x2298 <_ZN5TimerC1Ev>
    1d9e:	ce 01       	movw	r24, r28
    1da0:	85 96       	adiw	r24, 0x25	; 37
    1da2:	0e 94 ed 00 	call	0x1da	; 0x1da <_ZN9LedDriverC1Ev>
    1da6:	81 e0       	ldi	r24, 0x01	; 1
    1da8:	8e a7       	std	Y+46, r24	; 0x2e
    1daa:	41 e0       	ldi	r20, 0x01	; 1
    1dac:	50 e0       	ldi	r21, 0x00	; 0
    1dae:	60 e0       	ldi	r22, 0x00	; 0
    1db0:	70 e0       	ldi	r23, 0x00	; 0
    1db2:	4f a7       	std	Y+47, r20	; 0x2f
    1db4:	58 ab       	std	Y+48, r21	; 0x30
    1db6:	69 ab       	std	Y+49, r22	; 0x31
    1db8:	7a ab       	std	Y+50, r23	; 0x32
    1dba:	4b ab       	std	Y+51, r20	; 0x33
    1dbc:	5c ab       	std	Y+52, r21	; 0x34
    1dbe:	6d ab       	std	Y+53, r22	; 0x35
    1dc0:	7e ab       	std	Y+54, r23	; 0x36
    1dc2:	40 e0       	ldi	r20, 0x00	; 0
    1dc4:	50 e0       	ldi	r21, 0x00	; 0
    1dc6:	60 e8       	ldi	r22, 0x80	; 128
    1dc8:	7f e3       	ldi	r23, 0x3F	; 63
    1dca:	4f ab       	std	Y+55, r20	; 0x37
    1dcc:	58 af       	std	Y+56, r21	; 0x38
    1dce:	69 af       	std	Y+57, r22	; 0x39
    1dd0:	7a af       	std	Y+58, r23	; 0x3a
    1dd2:	92 e0       	ldi	r25, 0x02	; 2
    1dd4:	9d a7       	std	Y+45, r25	; 0x2d
    1dd6:	1b ae       	std	Y+59, r1	; 0x3b
    1dd8:	8c a3       	std	Y+36, r24	; 0x24
    1dda:	80 e0       	ldi	r24, 0x00	; 0
    1ddc:	90 e0       	ldi	r25, 0x00	; 0
    1dde:	a0 e0       	ldi	r26, 0x00	; 0
    1de0:	b0 e4       	ldi	r27, 0x40	; 64
    1de2:	8c af       	std	Y+60, r24	; 0x3c
    1de4:	9d af       	std	Y+61, r25	; 0x3d
    1de6:	ae af       	std	Y+62, r26	; 0x3e
    1de8:	bf af       	std	Y+63, r27	; 0x3f
    1dea:	df 91       	pop	r29
    1dec:	cf 91       	pop	r28
    1dee:	08 95       	ret

00001df0 <_ZN13LedControllerC1ERK9LedRecipePVhRKh>:
    1df0:	3f 92       	push	r3
    1df2:	4f 92       	push	r4
    1df4:	5f 92       	push	r5
    1df6:	6f 92       	push	r6
    1df8:	7f 92       	push	r7
    1dfa:	8f 92       	push	r8
    1dfc:	9f 92       	push	r9
    1dfe:	af 92       	push	r10
    1e00:	bf 92       	push	r11
    1e02:	cf 92       	push	r12
    1e04:	df 92       	push	r13
    1e06:	ef 92       	push	r14
    1e08:	ff 92       	push	r15
    1e0a:	0f 93       	push	r16
    1e0c:	1f 93       	push	r17
    1e0e:	cf 93       	push	r28
    1e10:	df 93       	push	r29
    1e12:	cd b7       	in	r28, 0x3d	; 61
    1e14:	de b7       	in	r29, 0x3e	; 62
    1e16:	60 97       	sbiw	r28, 0x10	; 16
    1e18:	0f b6       	in	r0, 0x3f	; 63
    1e1a:	f8 94       	cli
    1e1c:	de bf       	out	0x3e, r29	; 62
    1e1e:	0f be       	out	0x3f, r0	; 63
    1e20:	cd bf       	out	0x3d, r28	; 61
    1e22:	7c 01       	movw	r14, r24
    1e24:	8b 01       	movw	r16, r22
    1e26:	3a 01       	movw	r6, r20
    1e28:	49 01       	movw	r8, r18
    1e2a:	0e 94 4c 11 	call	0x2298	; 0x2298 <_ZN5TimerC1Ev>
    1e2e:	57 01       	movw	r10, r14
    1e30:	8c e0       	ldi	r24, 0x0C	; 12
    1e32:	a8 0e       	add	r10, r24
    1e34:	b1 1c       	adc	r11, r1
    1e36:	c5 01       	movw	r24, r10
    1e38:	0e 94 4c 11 	call	0x2298	; 0x2298 <_ZN5TimerC1Ev>
    1e3c:	67 01       	movw	r12, r14
    1e3e:	e8 e1       	ldi	r30, 0x18	; 24
    1e40:	ce 0e       	add	r12, r30
    1e42:	d1 1c       	adc	r13, r1
    1e44:	c6 01       	movw	r24, r12
    1e46:	0e 94 4c 11 	call	0x2298	; 0x2298 <_ZN5TimerC1Ev>
    1e4a:	27 01       	movw	r4, r14
    1e4c:	f5 e2       	ldi	r31, 0x25	; 37
    1e4e:	4f 0e       	add	r4, r31
    1e50:	51 1c       	adc	r5, r1
    1e52:	c2 01       	movw	r24, r4
    1e54:	0e 94 ed 00 	call	0x1da	; 0x1da <_ZN9LedDriverC1Ev>
    1e58:	33 24       	eor	r3, r3
    1e5a:	33 94       	inc	r3
    1e5c:	f7 01       	movw	r30, r14
    1e5e:	36 a6       	std	Z+46, r3	; 0x2e
    1e60:	81 e0       	ldi	r24, 0x01	; 1
    1e62:	90 e0       	ldi	r25, 0x00	; 0
    1e64:	a0 e0       	ldi	r26, 0x00	; 0
    1e66:	b0 e0       	ldi	r27, 0x00	; 0
    1e68:	87 a7       	std	Z+47, r24	; 0x2f
    1e6a:	90 ab       	std	Z+48, r25	; 0x30
    1e6c:	a1 ab       	std	Z+49, r26	; 0x31
    1e6e:	b2 ab       	std	Z+50, r27	; 0x32
    1e70:	83 ab       	std	Z+51, r24	; 0x33
    1e72:	94 ab       	std	Z+52, r25	; 0x34
    1e74:	a5 ab       	std	Z+53, r26	; 0x35
    1e76:	b6 ab       	std	Z+54, r27	; 0x36
    1e78:	80 e0       	ldi	r24, 0x00	; 0
    1e7a:	90 e0       	ldi	r25, 0x00	; 0
    1e7c:	a0 e8       	ldi	r26, 0x80	; 128
    1e7e:	bf e3       	ldi	r27, 0x3F	; 63
    1e80:	87 ab       	std	Z+55, r24	; 0x37
    1e82:	90 af       	std	Z+56, r25	; 0x38
    1e84:	a1 af       	std	Z+57, r26	; 0x39
    1e86:	b2 af       	std	Z+58, r27	; 0x3a
    1e88:	f8 01       	movw	r30, r16
    1e8a:	80 81       	ld	r24, Z
    1e8c:	f7 01       	movw	r30, r14
    1e8e:	86 a7       	std	Z+46, r24	; 0x2e
    1e90:	f8 01       	movw	r30, r16
    1e92:	81 81       	ldd	r24, Z+1	; 0x01
    1e94:	92 81       	ldd	r25, Z+2	; 0x02
    1e96:	a3 81       	ldd	r26, Z+3	; 0x03
    1e98:	b4 81       	ldd	r27, Z+4	; 0x04
    1e9a:	f7 01       	movw	r30, r14
    1e9c:	87 a7       	std	Z+47, r24	; 0x2f
    1e9e:	90 ab       	std	Z+48, r25	; 0x30
    1ea0:	a1 ab       	std	Z+49, r26	; 0x31
    1ea2:	b2 ab       	std	Z+50, r27	; 0x32
    1ea4:	f8 01       	movw	r30, r16
    1ea6:	85 81       	ldd	r24, Z+5	; 0x05
    1ea8:	96 81       	ldd	r25, Z+6	; 0x06
    1eaa:	a7 81       	ldd	r26, Z+7	; 0x07
    1eac:	b0 85       	ldd	r27, Z+8	; 0x08
    1eae:	f7 01       	movw	r30, r14
    1eb0:	83 ab       	std	Z+51, r24	; 0x33
    1eb2:	94 ab       	std	Z+52, r25	; 0x34
    1eb4:	a5 ab       	std	Z+53, r26	; 0x35
    1eb6:	b6 ab       	std	Z+54, r27	; 0x36
    1eb8:	f8 01       	movw	r30, r16
    1eba:	81 85       	ldd	r24, Z+9	; 0x09
    1ebc:	92 85       	ldd	r25, Z+10	; 0x0a
    1ebe:	a3 85       	ldd	r26, Z+11	; 0x0b
    1ec0:	b4 85       	ldd	r27, Z+12	; 0x0c
    1ec2:	f7 01       	movw	r30, r14
    1ec4:	87 ab       	std	Z+55, r24	; 0x37
    1ec6:	90 af       	std	Z+56, r25	; 0x38
    1ec8:	a1 af       	std	Z+57, r26	; 0x39
    1eca:	b2 af       	std	Z+58, r27	; 0x3a
    1ecc:	b7 01       	movw	r22, r14
    1ece:	61 5d       	subi	r22, 0xD1	; 209
    1ed0:	7f 4f       	sbci	r23, 0xFF	; 255
    1ed2:	ce 01       	movw	r24, r28
    1ed4:	01 96       	adiw	r24, 0x01	; 1
    1ed6:	0e 94 52 11 	call	0x22a4	; 0x22a4 <_ZN5TimerC1ERKm>
    1eda:	8c e0       	ldi	r24, 0x0C	; 12
    1edc:	fe 01       	movw	r30, r28
    1ede:	31 96       	adiw	r30, 0x01	; 1
    1ee0:	d7 01       	movw	r26, r14
    1ee2:	01 90       	ld	r0, Z+
    1ee4:	0d 92       	st	X+, r0
    1ee6:	8a 95       	dec	r24
    1ee8:	e1 f7       	brne	.-8      	; 0x1ee2 <_ZN13LedControllerC1ERK9LedRecipePVhRKh+0xf2>
    1eea:	ce 01       	movw	r24, r28
    1eec:	01 96       	adiw	r24, 0x01	; 1
    1eee:	0e 94 97 11 	call	0x232e	; 0x232e <_ZN5TimerD1Ev>
    1ef2:	b7 01       	movw	r22, r14
    1ef4:	6d 5c       	subi	r22, 0xCD	; 205
    1ef6:	7f 4f       	sbci	r23, 0xFF	; 255
    1ef8:	ce 01       	movw	r24, r28
    1efa:	01 96       	adiw	r24, 0x01	; 1
    1efc:	0e 94 52 11 	call	0x22a4	; 0x22a4 <_ZN5TimerC1ERKm>
    1f00:	8c e0       	ldi	r24, 0x0C	; 12
    1f02:	fe 01       	movw	r30, r28
    1f04:	31 96       	adiw	r30, 0x01	; 1
    1f06:	d5 01       	movw	r26, r10
    1f08:	01 90       	ld	r0, Z+
    1f0a:	0d 92       	st	X+, r0
    1f0c:	8a 95       	dec	r24
    1f0e:	e1 f7       	brne	.-8      	; 0x1f08 <_ZN13LedControllerC1ERK9LedRecipePVhRKh+0x118>
    1f10:	ce 01       	movw	r24, r28
    1f12:	01 96       	adiw	r24, 0x01	; 1
    1f14:	0e 94 97 11 	call	0x232e	; 0x232e <_ZN5TimerD1Ev>
    1f18:	88 e8       	ldi	r24, 0x88	; 136
    1f1a:	93 e1       	ldi	r25, 0x13	; 19
    1f1c:	a0 e0       	ldi	r26, 0x00	; 0
    1f1e:	b0 e0       	ldi	r27, 0x00	; 0
    1f20:	8d 87       	std	Y+13, r24	; 0x0d
    1f22:	9e 87       	std	Y+14, r25	; 0x0e
    1f24:	af 87       	std	Y+15, r26	; 0x0f
    1f26:	b8 8b       	std	Y+16, r27	; 0x10
    1f28:	be 01       	movw	r22, r28
    1f2a:	63 5f       	subi	r22, 0xF3	; 243
    1f2c:	7f 4f       	sbci	r23, 0xFF	; 255
    1f2e:	ce 01       	movw	r24, r28
    1f30:	01 96       	adiw	r24, 0x01	; 1
    1f32:	0e 94 52 11 	call	0x22a4	; 0x22a4 <_ZN5TimerC1ERKm>
    1f36:	8c e0       	ldi	r24, 0x0C	; 12
    1f38:	fe 01       	movw	r30, r28
    1f3a:	31 96       	adiw	r30, 0x01	; 1
    1f3c:	d6 01       	movw	r26, r12
    1f3e:	01 90       	ld	r0, Z+
    1f40:	0d 92       	st	X+, r0
    1f42:	8a 95       	dec	r24
    1f44:	e1 f7       	brne	.-8      	; 0x1f3e <_ZN13LedControllerC1ERK9LedRecipePVhRKh+0x14e>
    1f46:	ce 01       	movw	r24, r28
    1f48:	01 96       	adiw	r24, 0x01	; 1
    1f4a:	0e 94 97 11 	call	0x232e	; 0x232e <_ZN5TimerD1Ev>
    1f4e:	f7 01       	movw	r30, r14
    1f50:	07 a9       	ldd	r16, Z+55	; 0x37
    1f52:	10 ad       	ldd	r17, Z+56	; 0x38
    1f54:	21 ad       	ldd	r18, Z+57	; 0x39
    1f56:	32 ad       	ldd	r19, Z+58	; 0x3a
    1f58:	a4 01       	movw	r20, r8
    1f5a:	b3 01       	movw	r22, r6
    1f5c:	ce 01       	movw	r24, r28
    1f5e:	01 96       	adiw	r24, 0x01	; 1
    1f60:	0e 94 ee 00 	call	0x1dc	; 0x1dc <_ZN9LedDriverC1EPVhRKhf>
    1f64:	87 e0       	ldi	r24, 0x07	; 7
    1f66:	fe 01       	movw	r30, r28
    1f68:	31 96       	adiw	r30, 0x01	; 1
    1f6a:	d2 01       	movw	r26, r4
    1f6c:	01 90       	ld	r0, Z+
    1f6e:	0d 92       	st	X+, r0
    1f70:	8a 95       	dec	r24
    1f72:	e1 f7       	brne	.-8      	; 0x1f6c <_ZN13LedControllerC1ERK9LedRecipePVhRKh+0x17c>
    1f74:	ce 01       	movw	r24, r28
    1f76:	01 96       	adiw	r24, 0x01	; 1
    1f78:	0e 94 40 02 	call	0x480	; 0x480 <_ZN9LedDriverD1Ev>
    1f7c:	82 e0       	ldi	r24, 0x02	; 2
    1f7e:	f7 01       	movw	r30, r14
    1f80:	85 a7       	std	Z+45, r24	; 0x2d
    1f82:	13 ae       	std	Z+59, r1	; 0x3b
    1f84:	34 a2       	std	Z+36, r3	; 0x24
    1f86:	80 e0       	ldi	r24, 0x00	; 0
    1f88:	90 e0       	ldi	r25, 0x00	; 0
    1f8a:	a0 e0       	ldi	r26, 0x00	; 0
    1f8c:	b0 e4       	ldi	r27, 0x40	; 64
    1f8e:	84 af       	std	Z+60, r24	; 0x3c
    1f90:	95 af       	std	Z+61, r25	; 0x3d
    1f92:	a6 af       	std	Z+62, r26	; 0x3e
    1f94:	b7 af       	std	Z+63, r27	; 0x3f
    1f96:	60 96       	adiw	r28, 0x10	; 16
    1f98:	0f b6       	in	r0, 0x3f	; 63
    1f9a:	f8 94       	cli
    1f9c:	de bf       	out	0x3e, r29	; 62
    1f9e:	0f be       	out	0x3f, r0	; 63
    1fa0:	cd bf       	out	0x3d, r28	; 61
    1fa2:	df 91       	pop	r29
    1fa4:	cf 91       	pop	r28
    1fa6:	1f 91       	pop	r17
    1fa8:	0f 91       	pop	r16
    1faa:	ff 90       	pop	r15
    1fac:	ef 90       	pop	r14
    1fae:	df 90       	pop	r13
    1fb0:	cf 90       	pop	r12
    1fb2:	bf 90       	pop	r11
    1fb4:	af 90       	pop	r10
    1fb6:	9f 90       	pop	r9
    1fb8:	8f 90       	pop	r8
    1fba:	7f 90       	pop	r7
    1fbc:	6f 90       	pop	r6
    1fbe:	5f 90       	pop	r5
    1fc0:	4f 90       	pop	r4
    1fc2:	3f 90       	pop	r3
    1fc4:	08 95       	ret

00001fc6 <_ZN13LedController5StartEv>:
    1fc6:	cf 93       	push	r28
    1fc8:	df 93       	push	r29
    1fca:	ec 01       	movw	r28, r24
    1fcc:	1d a6       	std	Y+45, r1	; 0x2d
    1fce:	0e 94 5d 11 	call	0x22ba	; 0x22ba <_ZN5Timer5ResetEv>
    1fd2:	81 e0       	ldi	r24, 0x01	; 1
    1fd4:	8c a3       	std	Y+36, r24	; 0x24
    1fd6:	1b ae       	std	Y+59, r1	; 0x3b
    1fd8:	df 91       	pop	r29
    1fda:	cf 91       	pop	r28
    1fdc:	08 95       	ret

00001fde <_ZN13LedController5CheckEv>:
    1fde:	8f 92       	push	r8
    1fe0:	9f 92       	push	r9
    1fe2:	af 92       	push	r10
    1fe4:	bf 92       	push	r11
    1fe6:	cf 92       	push	r12
    1fe8:	df 92       	push	r13
    1fea:	ef 92       	push	r14
    1fec:	ff 92       	push	r15
    1fee:	0f 93       	push	r16
    1ff0:	1f 93       	push	r17
    1ff2:	cf 93       	push	r28
    1ff4:	df 93       	push	r29
    1ff6:	ec 01       	movw	r28, r24
    1ff8:	1d a5       	ldd	r17, Y+45	; 0x2d
    1ffa:	11 30       	cpi	r17, 0x01	; 1
    1ffc:	a9 f0       	breq	.+42     	; 0x2028 <_ZN13LedController5CheckEv+0x4a>
    1ffe:	18 f0       	brcs	.+6      	; 0x2006 <_ZN13LedController5CheckEv+0x28>
    2000:	13 30       	cpi	r17, 0x03	; 3
    2002:	01 f1       	breq	.+64     	; 0x2044 <_ZN13LedController5CheckEv+0x66>
    2004:	6a c0       	rjmp	.+212    	; 0x20da <_ZN13LedController5CheckEv+0xfc>
    2006:	0e 94 6d 11 	call	0x22da	; 0x22da <_ZN5Timer4DoneEv>
    200a:	88 23       	and	r24, r24
    200c:	09 f4       	brne	.+2      	; 0x2010 <_ZN13LedController5CheckEv+0x32>
    200e:	65 c0       	rjmp	.+202    	; 0x20da <_ZN13LedController5CheckEv+0xfc>
    2010:	ce 01       	movw	r24, r28
    2012:	0c 96       	adiw	r24, 0x0c	; 12
    2014:	0e 94 5d 11 	call	0x22ba	; 0x22ba <_ZN5Timer5ResetEv>
    2018:	60 e0       	ldi	r22, 0x00	; 0
    201a:	ce 01       	movw	r24, r28
    201c:	85 96       	adiw	r24, 0x25	; 37
    201e:	0e 94 fd 00 	call	0x1fa	; 0x1fa <_ZN9LedDriver6TurnOnEb>
    2022:	81 e0       	ldi	r24, 0x01	; 1
    2024:	8d a7       	std	Y+45, r24	; 0x2d
    2026:	5a c0       	rjmp	.+180    	; 0x20dc <_ZN13LedController5CheckEv+0xfe>
    2028:	0c 96       	adiw	r24, 0x0c	; 12
    202a:	0e 94 6d 11 	call	0x22da	; 0x22da <_ZN5Timer4DoneEv>
    202e:	88 23       	and	r24, r24
    2030:	09 f4       	brne	.+2      	; 0x2034 <_ZN13LedController5CheckEv+0x56>
    2032:	53 c0       	rjmp	.+166    	; 0x20da <_ZN13LedController5CheckEv+0xfc>
    2034:	ce 01       	movw	r24, r28
    2036:	85 96       	adiw	r24, 0x25	; 37
    2038:	0e 94 2c 02 	call	0x458	; 0x458 <_ZN9LedDriver7TurnOffEv>
    203c:	82 e0       	ldi	r24, 0x02	; 2
    203e:	8d a7       	std	Y+45, r24	; 0x2d
    2040:	1b af       	std	Y+59, r17	; 0x3b
    2042:	4b c0       	rjmp	.+150    	; 0x20da <_ZN13LedController5CheckEv+0xfc>
    2044:	6c 01       	movw	r12, r24
    2046:	28 e1       	ldi	r18, 0x18	; 24
    2048:	c2 0e       	add	r12, r18
    204a:	d1 1c       	adc	r13, r1
    204c:	c6 01       	movw	r24, r12
    204e:	0e 94 6d 11 	call	0x22da	; 0x22da <_ZN5Timer4DoneEv>
    2052:	88 23       	and	r24, r24
    2054:	09 f4       	brne	.+2      	; 0x2058 <_ZN13LedController5CheckEv+0x7a>
    2056:	41 c0       	rjmp	.+130    	; 0x20da <_ZN13LedController5CheckEv+0xfc>
    2058:	8c ac       	ldd	r8, Y+60	; 0x3c
    205a:	9d ac       	ldd	r9, Y+61	; 0x3d
    205c:	ae ac       	ldd	r10, Y+62	; 0x3e
    205e:	bf ac       	ldd	r11, Y+63	; 0x3f
    2060:	20 e0       	ldi	r18, 0x00	; 0
    2062:	30 e0       	ldi	r19, 0x00	; 0
    2064:	40 e0       	ldi	r20, 0x00	; 0
    2066:	50 e4       	ldi	r21, 0x40	; 64
    2068:	c5 01       	movw	r24, r10
    206a:	b4 01       	movw	r22, r8
    206c:	0e 94 15 14 	call	0x282a	; 0x282a <__cmpsf2>
    2070:	8e 01       	movw	r16, r28
    2072:	0b 5d       	subi	r16, 0xDB	; 219
    2074:	1f 4f       	sbci	r17, 0xFF	; 255
    2076:	9e 01       	movw	r18, r28
    2078:	24 5c       	subi	r18, 0xC4	; 196
    207a:	3f 4f       	sbci	r19, 0xFF	; 255
    207c:	79 01       	movw	r14, r18
    207e:	81 11       	cpse	r24, r1
    2080:	05 c0       	rjmp	.+10     	; 0x208c <_ZN13LedController5CheckEv+0xae>
    2082:	80 e0       	ldi	r24, 0x00	; 0
    2084:	90 e0       	ldi	r25, 0x00	; 0
    2086:	a0 ea       	ldi	r26, 0xA0	; 160
    2088:	b0 e4       	ldi	r27, 0x40	; 64
    208a:	0e c0       	rjmp	.+28     	; 0x20a8 <_ZN13LedController5CheckEv+0xca>
    208c:	20 e0       	ldi	r18, 0x00	; 0
    208e:	30 e0       	ldi	r19, 0x00	; 0
    2090:	40 ea       	ldi	r20, 0xA0	; 160
    2092:	51 e4       	ldi	r21, 0x41	; 65
    2094:	c5 01       	movw	r24, r10
    2096:	b4 01       	movw	r22, r8
    2098:	0e 94 15 14 	call	0x282a	; 0x282a <__cmpsf2>
    209c:	81 11       	cpse	r24, r1
    209e:	09 c0       	rjmp	.+18     	; 0x20b2 <_ZN13LedController5CheckEv+0xd4>
    20a0:	80 e0       	ldi	r24, 0x00	; 0
    20a2:	90 e0       	ldi	r25, 0x00	; 0
    20a4:	a0 e0       	ldi	r26, 0x00	; 0
    20a6:	b0 e4       	ldi	r27, 0x40	; 64
    20a8:	8c af       	std	Y+60, r24	; 0x3c
    20aa:	9d af       	std	Y+61, r25	; 0x3d
    20ac:	ae af       	std	Y+62, r26	; 0x3e
    20ae:	bf af       	std	Y+63, r27	; 0x3f
    20b0:	0c c0       	rjmp	.+24     	; 0x20ca <_ZN13LedController5CheckEv+0xec>
    20b2:	20 e0       	ldi	r18, 0x00	; 0
    20b4:	30 e0       	ldi	r19, 0x00	; 0
    20b6:	40 ea       	ldi	r20, 0xA0	; 160
    20b8:	50 e4       	ldi	r21, 0x40	; 64
    20ba:	c5 01       	movw	r24, r10
    20bc:	b4 01       	movw	r22, r8
    20be:	0e 94 a9 13 	call	0x2752	; 0x2752 <__addsf3>
    20c2:	6c af       	std	Y+60, r22	; 0x3c
    20c4:	7d af       	std	Y+61, r23	; 0x3d
    20c6:	8e af       	std	Y+62, r24	; 0x3e
    20c8:	9f af       	std	Y+63, r25	; 0x3f
    20ca:	40 e0       	ldi	r20, 0x00	; 0
    20cc:	b7 01       	movw	r22, r14
    20ce:	c8 01       	movw	r24, r16
    20d0:	0e 94 94 01 	call	0x328	; 0x328 <_ZN9LedDriver6TurnOnERKfb>
    20d4:	c6 01       	movw	r24, r12
    20d6:	0e 94 5d 11 	call	0x22ba	; 0x22ba <_ZN5Timer5ResetEv>
    20da:	80 e0       	ldi	r24, 0x00	; 0
    20dc:	df 91       	pop	r29
    20de:	cf 91       	pop	r28
    20e0:	1f 91       	pop	r17
    20e2:	0f 91       	pop	r16
    20e4:	ff 90       	pop	r15
    20e6:	ef 90       	pop	r14
    20e8:	df 90       	pop	r13
    20ea:	cf 90       	pop	r12
    20ec:	bf 90       	pop	r11
    20ee:	af 90       	pop	r10
    20f0:	9f 90       	pop	r9
    20f2:	8f 90       	pop	r8
    20f4:	08 95       	ret

000020f6 <_ZN13LedController11StartManualEv>:
    20f6:	cf 93       	push	r28
    20f8:	df 93       	push	r29
    20fa:	ec 01       	movw	r28, r24
    20fc:	83 e0       	ldi	r24, 0x03	; 3
    20fe:	8d a7       	std	Y+45, r24	; 0x2d
    2100:	80 e0       	ldi	r24, 0x00	; 0
    2102:	90 e0       	ldi	r25, 0x00	; 0
    2104:	a0 e0       	ldi	r26, 0x00	; 0
    2106:	b0 e4       	ldi	r27, 0x40	; 64
    2108:	8c af       	std	Y+60, r24	; 0x3c
    210a:	9d af       	std	Y+61, r25	; 0x3d
    210c:	ae af       	std	Y+62, r26	; 0x3e
    210e:	bf af       	std	Y+63, r27	; 0x3f
    2110:	ce 01       	movw	r24, r28
    2112:	48 96       	adiw	r24, 0x18	; 24
    2114:	0e 94 5d 11 	call	0x22ba	; 0x22ba <_ZN5Timer5ResetEv>
    2118:	be 01       	movw	r22, r28
    211a:	64 5c       	subi	r22, 0xC4	; 196
    211c:	7f 4f       	sbci	r23, 0xFF	; 255
    211e:	40 e0       	ldi	r20, 0x00	; 0
    2120:	ce 01       	movw	r24, r28
    2122:	85 96       	adiw	r24, 0x25	; 37
    2124:	df 91       	pop	r29
    2126:	cf 91       	pop	r28
    2128:	0c 94 94 01 	jmp	0x328	; 0x328 <_ZN9LedDriver6TurnOnERKfb>

0000212c <_ZN13LedController4StopEv>:
    212c:	cf 93       	push	r28
    212e:	df 93       	push	r29
    2130:	ec 01       	movw	r28, r24
    2132:	85 96       	adiw	r24, 0x25	; 37
    2134:	0e 94 2c 02 	call	0x458	; 0x458 <_ZN9LedDriver7TurnOffEv>
    2138:	81 e0       	ldi	r24, 0x01	; 1
    213a:	8b af       	std	Y+59, r24	; 0x3b
    213c:	8c a3       	std	Y+36, r24	; 0x24
    213e:	df 91       	pop	r29
    2140:	cf 91       	pop	r28
    2142:	08 95       	ret

00002144 <_ZN13LedController6IsDoneEv>:
    2144:	fc 01       	movw	r30, r24
    2146:	83 ad       	ldd	r24, Z+59	; 0x3b
    2148:	08 95       	ret

0000214a <_ZN13LedControllerD1Ev>:
    214a:	cf 93       	push	r28
    214c:	df 93       	push	r29
    214e:	ec 01       	movw	r28, r24
    2150:	85 96       	adiw	r24, 0x25	; 37
    2152:	0e 94 40 02 	call	0x480	; 0x480 <_ZN9LedDriverD1Ev>
    2156:	ce 01       	movw	r24, r28
    2158:	48 96       	adiw	r24, 0x18	; 24
    215a:	0e 94 97 11 	call	0x232e	; 0x232e <_ZN5TimerD1Ev>
    215e:	ce 01       	movw	r24, r28
    2160:	0c 96       	adiw	r24, 0x0c	; 12
    2162:	0e 94 97 11 	call	0x232e	; 0x232e <_ZN5TimerD1Ev>
    2166:	ce 01       	movw	r24, r28
    2168:	df 91       	pop	r29
    216a:	cf 91       	pop	r28
    216c:	0c 94 97 11 	jmp	0x232e	; 0x232e <_ZN5TimerD1Ev>

00002170 <_ZN6SwitchC1Ev>:
    2170:	08 95       	ret

00002172 <_ZN6SwitchC1EPVhRKhh>:
    2172:	fc 01       	movw	r30, r24
    2174:	10 82       	st	Z, r1
    2176:	72 87       	std	Z+10, r23	; 0x0a
    2178:	61 87       	std	Z+9, r22	; 0x09
    217a:	12 82       	std	Z+2, r1	; 0x02
    217c:	da 01       	movw	r26, r20
    217e:	8c 91       	ld	r24, X
    2180:	84 83       	std	Z+4, r24	; 0x04
    2182:	11 82       	std	Z+1, r1	; 0x01
    2184:	13 82       	std	Z+3, r1	; 0x03
    2186:	16 82       	std	Z+6, r1	; 0x06
    2188:	20 87       	std	Z+8, r18	; 0x08
    218a:	08 95       	ret

0000218c <_ZN6Switch8debounceEv>:
    218c:	fc 01       	movw	r30, r24
    218e:	a1 85       	ldd	r26, Z+9	; 0x09
    2190:	b2 85       	ldd	r27, Z+10	; 0x0a
    2192:	2c 91       	ld	r18, X
    2194:	81 e0       	ldi	r24, 0x01	; 1
    2196:	90 e0       	ldi	r25, 0x00	; 0
    2198:	04 80       	ldd	r0, Z+4	; 0x04
    219a:	02 c0       	rjmp	.+4      	; 0x21a0 <_ZN6Switch8debounceEv+0x14>
    219c:	88 0f       	add	r24, r24
    219e:	99 1f       	adc	r25, r25
    21a0:	0a 94       	dec	r0
    21a2:	e2 f7       	brpl	.-8      	; 0x219c <_ZN6Switch8debounceEv+0x10>
    21a4:	30 e0       	ldi	r19, 0x00	; 0
    21a6:	82 23       	and	r24, r18
    21a8:	93 23       	and	r25, r19
    21aa:	20 85       	ldd	r18, Z+8	; 0x08
    21ac:	30 e0       	ldi	r19, 0x00	; 0
    21ae:	82 17       	cp	r24, r18
    21b0:	93 07       	cpc	r25, r19
    21b2:	61 f4       	brne	.+24     	; 0x21cc <_ZN6Switch8debounceEv+0x40>
    21b4:	81 81       	ldd	r24, Z+1	; 0x01
    21b6:	8f 5f       	subi	r24, 0xFF	; 255
    21b8:	81 83       	std	Z+1, r24	; 0x01
    21ba:	84 30       	cpi	r24, 0x04	; 4
    21bc:	40 f0       	brcs	.+16     	; 0x21ce <_ZN6Switch8debounceEv+0x42>
    21be:	81 e0       	ldi	r24, 0x01	; 1
    21c0:	80 83       	st	Z, r24
    21c2:	86 81       	ldd	r24, Z+6	; 0x06
    21c4:	8f 5f       	subi	r24, 0xFF	; 255
    21c6:	86 83       	std	Z+6, r24	; 0x06
    21c8:	11 82       	std	Z+1, r1	; 0x01
    21ca:	08 95       	ret
    21cc:	10 82       	st	Z, r1
    21ce:	08 95       	ret

000021d0 <_ZN6Switch11clear_stateEv>:
    21d0:	fc 01       	movw	r30, r24
    21d2:	11 82       	std	Z+1, r1	; 0x01
    21d4:	08 95       	ret

000021d6 <_ZN6Switch8switchedEv>:
    21d6:	fc 01       	movw	r30, r24
    21d8:	80 81       	ld	r24, Z
    21da:	08 95       	ret

000021dc <_ZN6SwitchD1Ev>:
    21dc:	08 95       	ret

000021de <_ZN4TaskC1Ev>:
    21de:	fc 01       	movw	r30, r24
    21e0:	13 82       	std	Z+3, r1	; 0x03
    21e2:	10 82       	st	Z, r1
    21e4:	84 e0       	ldi	r24, 0x04	; 4
    21e6:	81 83       	std	Z+1, r24	; 0x01
    21e8:	08 95       	ret

000021ea <_ZN4TaskaSERKS_>:
    21ea:	fb 01       	movw	r30, r22
    21ec:	20 81       	ld	r18, Z
    21ee:	dc 01       	movw	r26, r24
    21f0:	2c 93       	st	X, r18
    21f2:	21 81       	ldd	r18, Z+1	; 0x01
    21f4:	11 96       	adiw	r26, 0x01	; 1
    21f6:	2c 93       	st	X, r18
    21f8:	11 97       	sbiw	r26, 0x01	; 1
    21fa:	22 81       	ldd	r18, Z+2	; 0x02
    21fc:	12 96       	adiw	r26, 0x02	; 2
    21fe:	2c 93       	st	X, r18
    2200:	08 95       	ret

00002202 <_ZNK4TaskneERKS_>:
    2202:	21 e0       	ldi	r18, 0x01	; 1
    2204:	fc 01       	movw	r30, r24
    2206:	92 81       	ldd	r25, Z+2	; 0x02
    2208:	fb 01       	movw	r30, r22
    220a:	82 81       	ldd	r24, Z+2	; 0x02
    220c:	98 13       	cpse	r25, r24
    220e:	01 c0       	rjmp	.+2      	; 0x2212 <_ZNK4TaskneERKS_+0x10>
    2210:	20 e0       	ldi	r18, 0x00	; 0
    2212:	82 2f       	mov	r24, r18
    2214:	08 95       	ret

00002216 <_ZN4TaskD1Ev>:
    2216:	08 95       	ret

00002218 <millis_init>:
    2218:	10 92 80 00 	sts	0x0080, r1	; 0x800080 <__TEXT_REGION_LENGTH__+0x7f8080>
    221c:	89 e0       	ldi	r24, 0x09	; 9
    221e:	80 93 81 00 	sts	0x0081, r24	; 0x800081 <__TEXT_REGION_LENGTH__+0x7f8081>
    2222:	82 e0       	ldi	r24, 0x02	; 2
    2224:	80 93 6f 00 	sts	0x006F, r24	; 0x80006f <__TEXT_REGION_LENGTH__+0x7f806f>
    2228:	80 e8       	ldi	r24, 0x80	; 128
    222a:	9e e3       	ldi	r25, 0x3E	; 62
    222c:	90 93 89 00 	sts	0x0089, r25	; 0x800089 <__TEXT_REGION_LENGTH__+0x7f8089>
    2230:	80 93 88 00 	sts	0x0088, r24	; 0x800088 <__TEXT_REGION_LENGTH__+0x7f8088>
    2234:	08 95       	ret

00002236 <millis_get>:
    2236:	2f b7       	in	r18, 0x3f	; 63
    2238:	f8 94       	cli
    223a:	60 91 39 03 	lds	r22, 0x0339	; 0x800339 <_ZL12milliseconds>
    223e:	70 91 3a 03 	lds	r23, 0x033A	; 0x80033a <_ZL12milliseconds+0x1>
    2242:	80 91 3b 03 	lds	r24, 0x033B	; 0x80033b <_ZL12milliseconds+0x2>
    2246:	90 91 3c 03 	lds	r25, 0x033C	; 0x80033c <_ZL12milliseconds+0x3>
    224a:	2f bf       	out	0x3f, r18	; 63
    224c:	08 95       	ret

0000224e <__vector_17>:
    224e:	1f 92       	push	r1
    2250:	0f 92       	push	r0
    2252:	0f b6       	in	r0, 0x3f	; 63
    2254:	0f 92       	push	r0
    2256:	11 24       	eor	r1, r1
    2258:	8f 93       	push	r24
    225a:	9f 93       	push	r25
    225c:	af 93       	push	r26
    225e:	bf 93       	push	r27
    2260:	80 91 39 03 	lds	r24, 0x0339	; 0x800339 <_ZL12milliseconds>
    2264:	90 91 3a 03 	lds	r25, 0x033A	; 0x80033a <_ZL12milliseconds+0x1>
    2268:	a0 91 3b 03 	lds	r26, 0x033B	; 0x80033b <_ZL12milliseconds+0x2>
    226c:	b0 91 3c 03 	lds	r27, 0x033C	; 0x80033c <_ZL12milliseconds+0x3>
    2270:	01 96       	adiw	r24, 0x01	; 1
    2272:	a1 1d       	adc	r26, r1
    2274:	b1 1d       	adc	r27, r1
    2276:	80 93 39 03 	sts	0x0339, r24	; 0x800339 <_ZL12milliseconds>
    227a:	90 93 3a 03 	sts	0x033A, r25	; 0x80033a <_ZL12milliseconds+0x1>
    227e:	a0 93 3b 03 	sts	0x033B, r26	; 0x80033b <_ZL12milliseconds+0x2>
    2282:	b0 93 3c 03 	sts	0x033C, r27	; 0x80033c <_ZL12milliseconds+0x3>
    2286:	bf 91       	pop	r27
    2288:	af 91       	pop	r26
    228a:	9f 91       	pop	r25
    228c:	8f 91       	pop	r24
    228e:	0f 90       	pop	r0
    2290:	0f be       	out	0x3f, r0	; 63
    2292:	0f 90       	pop	r0
    2294:	1f 90       	pop	r1
    2296:	18 95       	reti

00002298 <_ZN5TimerC1Ev>:
    2298:	fc 01       	movw	r30, r24
    229a:	10 86       	std	Z+8, r1	; 0x08
    229c:	11 86       	std	Z+9, r1	; 0x09
    229e:	12 86       	std	Z+10, r1	; 0x0a
    22a0:	13 86       	std	Z+11, r1	; 0x0b
    22a2:	08 95       	ret

000022a4 <_ZN5TimerC1ERKm>:
    22a4:	fb 01       	movw	r30, r22
    22a6:	40 81       	ld	r20, Z
    22a8:	51 81       	ldd	r21, Z+1	; 0x01
    22aa:	62 81       	ldd	r22, Z+2	; 0x02
    22ac:	73 81       	ldd	r23, Z+3	; 0x03
    22ae:	fc 01       	movw	r30, r24
    22b0:	40 87       	std	Z+8, r20	; 0x08
    22b2:	51 87       	std	Z+9, r21	; 0x09
    22b4:	62 87       	std	Z+10, r22	; 0x0a
    22b6:	73 87       	std	Z+11, r23	; 0x0b
    22b8:	08 95       	ret

000022ba <_ZN5Timer5ResetEv>:
    22ba:	cf 93       	push	r28
    22bc:	df 93       	push	r29
    22be:	ec 01       	movw	r28, r24
    22c0:	0e 94 1b 11 	call	0x2236	; 0x2236 <millis_get>
    22c4:	6c 83       	std	Y+4, r22	; 0x04
    22c6:	7d 83       	std	Y+5, r23	; 0x05
    22c8:	8e 83       	std	Y+6, r24	; 0x06
    22ca:	9f 83       	std	Y+7, r25	; 0x07
    22cc:	68 83       	st	Y, r22
    22ce:	79 83       	std	Y+1, r23	; 0x01
    22d0:	8a 83       	std	Y+2, r24	; 0x02
    22d2:	9b 83       	std	Y+3, r25	; 0x03
    22d4:	df 91       	pop	r29
    22d6:	cf 91       	pop	r28
    22d8:	08 95       	ret

000022da <_ZN5Timer4DoneEv>:
    22da:	cf 92       	push	r12
    22dc:	df 92       	push	r13
    22de:	ef 92       	push	r14
    22e0:	ff 92       	push	r15
    22e2:	cf 93       	push	r28
    22e4:	df 93       	push	r29
    22e6:	ec 01       	movw	r28, r24
    22e8:	0e 94 1b 11 	call	0x2236	; 0x2236 <millis_get>
    22ec:	6c 83       	std	Y+4, r22	; 0x04
    22ee:	7d 83       	std	Y+5, r23	; 0x05
    22f0:	8e 83       	std	Y+6, r24	; 0x06
    22f2:	9f 83       	std	Y+7, r25	; 0x07
    22f4:	c8 80       	ld	r12, Y
    22f6:	d9 80       	ldd	r13, Y+1	; 0x01
    22f8:	ea 80       	ldd	r14, Y+2	; 0x02
    22fa:	fb 80       	ldd	r15, Y+3	; 0x03
    22fc:	dc 01       	movw	r26, r24
    22fe:	cb 01       	movw	r24, r22
    2300:	8c 19       	sub	r24, r12
    2302:	9d 09       	sbc	r25, r13
    2304:	ae 09       	sbc	r26, r14
    2306:	bf 09       	sbc	r27, r15
    2308:	21 e0       	ldi	r18, 0x01	; 1
    230a:	c8 84       	ldd	r12, Y+8	; 0x08
    230c:	d9 84       	ldd	r13, Y+9	; 0x09
    230e:	ea 84       	ldd	r14, Y+10	; 0x0a
    2310:	fb 84       	ldd	r15, Y+11	; 0x0b
    2312:	8c 15       	cp	r24, r12
    2314:	9d 05       	cpc	r25, r13
    2316:	ae 05       	cpc	r26, r14
    2318:	bf 05       	cpc	r27, r15
    231a:	08 f4       	brcc	.+2      	; 0x231e <_ZN5Timer4DoneEv+0x44>
    231c:	20 e0       	ldi	r18, 0x00	; 0
    231e:	82 2f       	mov	r24, r18
    2320:	df 91       	pop	r29
    2322:	cf 91       	pop	r28
    2324:	ff 90       	pop	r15
    2326:	ef 90       	pop	r14
    2328:	df 90       	pop	r13
    232a:	cf 90       	pop	r12
    232c:	08 95       	ret

0000232e <_ZN5TimerD1Ev>:
    232e:	08 95       	ret

00002330 <usb_wait_in_ready>:
    2330:	80 91 e8 00 	lds	r24, 0x00E8	; 0x8000e8 <__TEXT_REGION_LENGTH__+0x7f80e8>
    2334:	80 ff       	sbrs	r24, 0
    2336:	fc cf       	rjmp	.-8      	; 0x2330 <usb_wait_in_ready>
    2338:	08 95       	ret

0000233a <m_usb_init>:
    233a:	81 e0       	ldi	r24, 0x01	; 1
    233c:	80 93 d7 00 	sts	0x00D7, r24	; 0x8000d7 <__TEXT_REGION_LENGTH__+0x7f80d7>
    2340:	80 ea       	ldi	r24, 0xA0	; 160
    2342:	80 93 d8 00 	sts	0x00D8, r24	; 0x8000d8 <__TEXT_REGION_LENGTH__+0x7f80d8>
    2346:	82 e1       	ldi	r24, 0x12	; 18
    2348:	89 bd       	out	0x29, r24	; 41
    234a:	09 b4       	in	r0, 0x29	; 41
    234c:	00 fe       	sbrs	r0, 0
    234e:	fd cf       	rjmp	.-6      	; 0x234a <m_usb_init+0x10>
    2350:	80 e9       	ldi	r24, 0x90	; 144
    2352:	80 93 d8 00 	sts	0x00D8, r24	; 0x8000d8 <__TEXT_REGION_LENGTH__+0x7f80d8>
    2356:	10 92 e0 00 	sts	0x00E0, r1	; 0x8000e0 <__TEXT_REGION_LENGTH__+0x7f80e0>
    235a:	10 92 40 03 	sts	0x0340, r1	; 0x800340 <usb_configuration>
    235e:	10 92 3d 03 	sts	0x033D, r1	; 0x80033d <cdc_line_rtsdtr>
    2362:	8c e0       	ldi	r24, 0x0C	; 12
    2364:	80 93 e2 00 	sts	0x00E2, r24	; 0x8000e2 <__TEXT_REGION_LENGTH__+0x7f80e2>
    2368:	78 94       	sei
    236a:	08 95       	ret

0000236c <m_usb_isconnected>:
    236c:	80 91 40 03 	lds	r24, 0x0340	; 0x800340 <usb_configuration>
    2370:	08 95       	ret

00002372 <m_usb_rx_char>:
    2372:	9f b7       	in	r25, 0x3f	; 63
    2374:	f8 94       	cli
    2376:	80 91 40 03 	lds	r24, 0x0340	; 0x800340 <usb_configuration>
    237a:	88 23       	and	r24, r24
    237c:	39 f0       	breq	.+14     	; 0x238c <m_usb_rx_char+0x1a>
    237e:	83 e0       	ldi	r24, 0x03	; 3
    2380:	80 93 e9 00 	sts	0x00E9, r24	; 0x8000e9 <__TEXT_REGION_LENGTH__+0x7f80e9>
    2384:	80 91 e8 00 	lds	r24, 0x00E8	; 0x8000e8 <__TEXT_REGION_LENGTH__+0x7f80e8>
    2388:	85 fd       	sbrc	r24, 5
    238a:	03 c0       	rjmp	.+6      	; 0x2392 <m_usb_rx_char+0x20>
    238c:	9f bf       	out	0x3f, r25	; 63
    238e:	8f ef       	ldi	r24, 0xFF	; 255
    2390:	08 95       	ret
    2392:	80 91 f1 00 	lds	r24, 0x00F1	; 0x8000f1 <__TEXT_REGION_LENGTH__+0x7f80f1>
    2396:	20 91 e8 00 	lds	r18, 0x00E8	; 0x8000e8 <__TEXT_REGION_LENGTH__+0x7f80e8>
    239a:	25 fd       	sbrc	r18, 5
    239c:	03 c0       	rjmp	.+6      	; 0x23a4 <m_usb_rx_char+0x32>
    239e:	2b e6       	ldi	r18, 0x6B	; 107
    23a0:	20 93 e8 00 	sts	0x00E8, r18	; 0x8000e8 <__TEXT_REGION_LENGTH__+0x7f80e8>
    23a4:	9f bf       	out	0x3f, r25	; 63
    23a6:	08 95       	ret

000023a8 <m_usb_rx_available>:
    23a8:	9f b7       	in	r25, 0x3f	; 63
    23aa:	f8 94       	cli
    23ac:	80 91 40 03 	lds	r24, 0x0340	; 0x800340 <usb_configuration>
    23b0:	88 23       	and	r24, r24
    23b2:	31 f0       	breq	.+12     	; 0x23c0 <m_usb_rx_available+0x18>
    23b4:	83 e0       	ldi	r24, 0x03	; 3
    23b6:	80 93 e9 00 	sts	0x00E9, r24	; 0x8000e9 <__TEXT_REGION_LENGTH__+0x7f80e9>
    23ba:	80 91 f2 00 	lds	r24, 0x00F2	; 0x8000f2 <__TEXT_REGION_LENGTH__+0x7f80f2>
    23be:	01 c0       	rjmp	.+2      	; 0x23c2 <m_usb_rx_available+0x1a>
    23c0:	80 e0       	ldi	r24, 0x00	; 0
    23c2:	9f bf       	out	0x3f, r25	; 63
    23c4:	08 95       	ret

000023c6 <m_usb_tx_char>:
    23c6:	90 91 40 03 	lds	r25, 0x0340	; 0x800340 <usb_configuration>
    23ca:	99 23       	and	r25, r25
    23cc:	09 f1       	breq	.+66     	; 0x2410 <m_usb_tx_char+0x4a>
    23ce:	9f b7       	in	r25, 0x3f	; 63
    23d0:	f8 94       	cli
    23d2:	24 e0       	ldi	r18, 0x04	; 4
    23d4:	20 93 e9 00 	sts	0x00E9, r18	; 0x8000e9 <__TEXT_REGION_LENGTH__+0x7f80e9>
    23d8:	20 91 3e 03 	lds	r18, 0x033E	; 0x80033e <transmit_previous_timeout>
    23dc:	22 23       	and	r18, r18
    23de:	41 f0       	breq	.+16     	; 0x23f0 <m_usb_tx_char+0x2a>
    23e0:	20 91 e8 00 	lds	r18, 0x00E8	; 0x8000e8 <__TEXT_REGION_LENGTH__+0x7f80e8>
    23e4:	25 fd       	sbrc	r18, 5
    23e6:	02 c0       	rjmp	.+4      	; 0x23ec <m_usb_tx_char+0x26>
    23e8:	9f bf       	out	0x3f, r25	; 63
    23ea:	12 c0       	rjmp	.+36     	; 0x2410 <m_usb_tx_char+0x4a>
    23ec:	10 92 3e 03 	sts	0x033E, r1	; 0x80033e <transmit_previous_timeout>
    23f0:	20 91 e4 00 	lds	r18, 0x00E4	; 0x8000e4 <__TEXT_REGION_LENGTH__+0x7f80e4>
    23f4:	27 5e       	subi	r18, 0xE7	; 231
    23f6:	34 e0       	ldi	r19, 0x04	; 4
    23f8:	40 91 e8 00 	lds	r20, 0x00E8	; 0x8000e8 <__TEXT_REGION_LENGTH__+0x7f80e8>
    23fc:	45 fd       	sbrc	r20, 5
    23fe:	13 c0       	rjmp	.+38     	; 0x2426 <m_usb_tx_char+0x60>
    2400:	9f bf       	out	0x3f, r25	; 63
    2402:	90 91 e4 00 	lds	r25, 0x00E4	; 0x8000e4 <__TEXT_REGION_LENGTH__+0x7f80e4>
    2406:	29 13       	cpse	r18, r25
    2408:	05 c0       	rjmp	.+10     	; 0x2414 <m_usb_tx_char+0x4e>
    240a:	81 e0       	ldi	r24, 0x01	; 1
    240c:	80 93 3e 03 	sts	0x033E, r24	; 0x80033e <transmit_previous_timeout>
    2410:	8f ef       	ldi	r24, 0xFF	; 255
    2412:	08 95       	ret
    2414:	90 91 40 03 	lds	r25, 0x0340	; 0x800340 <usb_configuration>
    2418:	99 23       	and	r25, r25
    241a:	d1 f3       	breq	.-12     	; 0x2410 <m_usb_tx_char+0x4a>
    241c:	9f b7       	in	r25, 0x3f	; 63
    241e:	f8 94       	cli
    2420:	30 93 e9 00 	sts	0x00E9, r19	; 0x8000e9 <__TEXT_REGION_LENGTH__+0x7f80e9>
    2424:	e9 cf       	rjmp	.-46     	; 0x23f8 <m_usb_tx_char+0x32>
    2426:	80 93 f1 00 	sts	0x00F1, r24	; 0x8000f1 <__TEXT_REGION_LENGTH__+0x7f80f1>
    242a:	80 91 e8 00 	lds	r24, 0x00E8	; 0x8000e8 <__TEXT_REGION_LENGTH__+0x7f80e8>
    242e:	85 fd       	sbrc	r24, 5
    2430:	03 c0       	rjmp	.+6      	; 0x2438 <m_usb_tx_char+0x72>
    2432:	8a e3       	ldi	r24, 0x3A	; 58
    2434:	80 93 e8 00 	sts	0x00E8, r24	; 0x8000e8 <__TEXT_REGION_LENGTH__+0x7f80e8>
    2438:	85 e0       	ldi	r24, 0x05	; 5
    243a:	80 93 3f 03 	sts	0x033F, r24	; 0x80033f <transmit_flush_timer>
    243e:	9f bf       	out	0x3f, r25	; 63
    2440:	80 e0       	ldi	r24, 0x00	; 0
    2442:	08 95       	ret

00002444 <__vector_10>:
    2444:	1f 92       	push	r1
    2446:	0f 92       	push	r0
    2448:	0f b6       	in	r0, 0x3f	; 63
    244a:	0f 92       	push	r0
    244c:	11 24       	eor	r1, r1
    244e:	8f 93       	push	r24
    2450:	9f 93       	push	r25
    2452:	80 91 e1 00 	lds	r24, 0x00E1	; 0x8000e1 <__TEXT_REGION_LENGTH__+0x7f80e1>
    2456:	10 92 e1 00 	sts	0x00E1, r1	; 0x8000e1 <__TEXT_REGION_LENGTH__+0x7f80e1>
    245a:	83 ff       	sbrs	r24, 3
    245c:	11 c0       	rjmp	.+34     	; 0x2480 <__vector_10+0x3c>
    245e:	10 92 e9 00 	sts	0x00E9, r1	; 0x8000e9 <__TEXT_REGION_LENGTH__+0x7f80e9>
    2462:	91 e0       	ldi	r25, 0x01	; 1
    2464:	90 93 eb 00 	sts	0x00EB, r25	; 0x8000eb <__TEXT_REGION_LENGTH__+0x7f80eb>
    2468:	10 92 ec 00 	sts	0x00EC, r1	; 0x8000ec <__TEXT_REGION_LENGTH__+0x7f80ec>
    246c:	92 e1       	ldi	r25, 0x12	; 18
    246e:	90 93 ed 00 	sts	0x00ED, r25	; 0x8000ed <__TEXT_REGION_LENGTH__+0x7f80ed>
    2472:	98 e0       	ldi	r25, 0x08	; 8
    2474:	90 93 f0 00 	sts	0x00F0, r25	; 0x8000f0 <__TEXT_REGION_LENGTH__+0x7f80f0>
    2478:	10 92 40 03 	sts	0x0340, r1	; 0x800340 <usb_configuration>
    247c:	10 92 3d 03 	sts	0x033D, r1	; 0x80033d <cdc_line_rtsdtr>
    2480:	82 ff       	sbrs	r24, 2
    2482:	13 c0       	rjmp	.+38     	; 0x24aa <__vector_10+0x66>
    2484:	80 91 40 03 	lds	r24, 0x0340	; 0x800340 <usb_configuration>
    2488:	88 23       	and	r24, r24
    248a:	79 f0       	breq	.+30     	; 0x24aa <__vector_10+0x66>
    248c:	80 91 3f 03 	lds	r24, 0x033F	; 0x80033f <transmit_flush_timer>
    2490:	88 23       	and	r24, r24
    2492:	59 f0       	breq	.+22     	; 0x24aa <__vector_10+0x66>
    2494:	81 50       	subi	r24, 0x01	; 1
    2496:	80 93 3f 03 	sts	0x033F, r24	; 0x80033f <transmit_flush_timer>
    249a:	81 11       	cpse	r24, r1
    249c:	06 c0       	rjmp	.+12     	; 0x24aa <__vector_10+0x66>
    249e:	84 e0       	ldi	r24, 0x04	; 4
    24a0:	80 93 e9 00 	sts	0x00E9, r24	; 0x8000e9 <__TEXT_REGION_LENGTH__+0x7f80e9>
    24a4:	8a e3       	ldi	r24, 0x3A	; 58
    24a6:	80 93 e8 00 	sts	0x00E8, r24	; 0x8000e8 <__TEXT_REGION_LENGTH__+0x7f80e8>
    24aa:	9f 91       	pop	r25
    24ac:	8f 91       	pop	r24
    24ae:	0f 90       	pop	r0
    24b0:	0f be       	out	0x3f, r0	; 63
    24b2:	0f 90       	pop	r0
    24b4:	1f 90       	pop	r1
    24b6:	18 95       	reti

000024b8 <__vector_11>:
    24b8:	1f 92       	push	r1
    24ba:	0f 92       	push	r0
    24bc:	0f b6       	in	r0, 0x3f	; 63
    24be:	0f 92       	push	r0
    24c0:	11 24       	eor	r1, r1
    24c2:	ff 92       	push	r15
    24c4:	0f 93       	push	r16
    24c6:	1f 93       	push	r17
    24c8:	2f 93       	push	r18
    24ca:	3f 93       	push	r19
    24cc:	4f 93       	push	r20
    24ce:	5f 93       	push	r21
    24d0:	6f 93       	push	r22
    24d2:	7f 93       	push	r23
    24d4:	8f 93       	push	r24
    24d6:	9f 93       	push	r25
    24d8:	af 93       	push	r26
    24da:	bf 93       	push	r27
    24dc:	cf 93       	push	r28
    24de:	df 93       	push	r29
    24e0:	ef 93       	push	r30
    24e2:	ff 93       	push	r31
    24e4:	10 92 e9 00 	sts	0x00E9, r1	; 0x8000e9 <__TEXT_REGION_LENGTH__+0x7f80e9>
    24e8:	80 91 e8 00 	lds	r24, 0x00E8	; 0x8000e8 <__TEXT_REGION_LENGTH__+0x7f80e8>
    24ec:	83 ff       	sbrs	r24, 3
    24ee:	17 c1       	rjmp	.+558    	; 0x271e <__vector_11+0x266>
    24f0:	f0 90 f1 00 	lds	r15, 0x00F1	; 0x8000f1 <__TEXT_REGION_LENGTH__+0x7f80f1>
    24f4:	80 91 f1 00 	lds	r24, 0x00F1	; 0x8000f1 <__TEXT_REGION_LENGTH__+0x7f80f1>
    24f8:	00 91 f1 00 	lds	r16, 0x00F1	; 0x8000f1 <__TEXT_REGION_LENGTH__+0x7f80f1>
    24fc:	90 91 f1 00 	lds	r25, 0x00F1	; 0x8000f1 <__TEXT_REGION_LENGTH__+0x7f80f1>
    2500:	10 e0       	ldi	r17, 0x00	; 0
    2502:	19 2b       	or	r17, r25
    2504:	c0 91 f1 00 	lds	r28, 0x00F1	; 0x8000f1 <__TEXT_REGION_LENGTH__+0x7f80f1>
    2508:	90 91 f1 00 	lds	r25, 0x00F1	; 0x8000f1 <__TEXT_REGION_LENGTH__+0x7f80f1>
    250c:	d0 e0       	ldi	r29, 0x00	; 0
    250e:	d9 2b       	or	r29, r25
    2510:	20 91 f1 00 	lds	r18, 0x00F1	; 0x8000f1 <__TEXT_REGION_LENGTH__+0x7f80f1>
    2514:	60 91 f1 00 	lds	r22, 0x00F1	; 0x8000f1 <__TEXT_REGION_LENGTH__+0x7f80f1>
    2518:	92 ef       	ldi	r25, 0xF2	; 242
    251a:	90 93 e8 00 	sts	0x00E8, r25	; 0x8000e8 <__TEXT_REGION_LENGTH__+0x7f80e8>
    251e:	86 30       	cpi	r24, 0x06	; 6
    2520:	09 f0       	breq	.+2      	; 0x2524 <__vector_11+0x6c>
    2522:	49 c0       	rjmp	.+146    	; 0x25b6 <__vector_11+0xfe>
    2524:	88 eb       	ldi	r24, 0xB8	; 184
    2526:	90 e0       	ldi	r25, 0x00	; 0
    2528:	42 ee       	ldi	r20, 0xE2	; 226
    252a:	50 e0       	ldi	r21, 0x00	; 0
    252c:	fc 01       	movw	r30, r24
    252e:	a5 91       	lpm	r26, Z+
    2530:	b4 91       	lpm	r27, Z
    2532:	0a 17       	cp	r16, r26
    2534:	1b 07       	cpc	r17, r27
    2536:	d9 f4       	brne	.+54     	; 0x256e <__vector_11+0xb6>
    2538:	fc 01       	movw	r30, r24
    253a:	32 96       	adiw	r30, 0x02	; 2
    253c:	a5 91       	lpm	r26, Z+
    253e:	b4 91       	lpm	r27, Z
    2540:	ca 17       	cp	r28, r26
    2542:	db 07       	cpc	r29, r27
    2544:	a1 f4       	brne	.+40     	; 0x256e <__vector_11+0xb6>
    2546:	fc 01       	movw	r30, r24
    2548:	34 96       	adiw	r30, 0x04	; 4
    254a:	45 91       	lpm	r20, Z+
    254c:	54 91       	lpm	r21, Z
    254e:	fc 01       	movw	r30, r24
    2550:	36 96       	adiw	r30, 0x06	; 6
    2552:	84 91       	lpm	r24, Z
    2554:	30 e0       	ldi	r19, 0x00	; 0
    2556:	36 2b       	or	r19, r22
    2558:	2f 3f       	cpi	r18, 0xFF	; 255
    255a:	31 05       	cpc	r19, r1
    255c:	19 f0       	breq	.+6      	; 0x2564 <__vector_11+0xac>
    255e:	10 f0       	brcs	.+4      	; 0x2564 <__vector_11+0xac>
    2560:	2f ef       	ldi	r18, 0xFF	; 255
    2562:	30 e0       	ldi	r19, 0x00	; 0
    2564:	28 17       	cp	r18, r24
    2566:	08 f4       	brcc	.+2      	; 0x256a <__vector_11+0xb2>
    2568:	82 2f       	mov	r24, r18
    256a:	3e ef       	ldi	r19, 0xFE	; 254
    256c:	0c c0       	rjmp	.+24     	; 0x2586 <__vector_11+0xce>
    256e:	07 96       	adiw	r24, 0x07	; 7
    2570:	48 17       	cp	r20, r24
    2572:	59 07       	cpc	r21, r25
    2574:	d9 f6       	brne	.-74     	; 0x252c <__vector_11+0x74>
    2576:	d3 c0       	rjmp	.+422    	; 0x271e <__vector_11+0x266>
    2578:	49 0f       	add	r20, r25
    257a:	51 1d       	adc	r21, r1
    257c:	89 1b       	sub	r24, r25
    257e:	30 93 e8 00 	sts	0x00E8, r19	; 0x8000e8 <__TEXT_REGION_LENGTH__+0x7f80e8>
    2582:	88 23       	and	r24, r24
    2584:	a9 f0       	breq	.+42     	; 0x25b0 <__vector_11+0xf8>
    2586:	90 91 e8 00 	lds	r25, 0x00E8	; 0x8000e8 <__TEXT_REGION_LENGTH__+0x7f80e8>
    258a:	29 2f       	mov	r18, r25
    258c:	25 70       	andi	r18, 0x05	; 5
    258e:	d9 f3       	breq	.-10     	; 0x2586 <__vector_11+0xce>
    2590:	92 fd       	sbrc	r25, 2
    2592:	c8 c0       	rjmp	.+400    	; 0x2724 <__vector_11+0x26c>
    2594:	98 2f       	mov	r25, r24
    2596:	81 31       	cpi	r24, 0x11	; 17
    2598:	08 f0       	brcs	.+2      	; 0x259c <__vector_11+0xe4>
    259a:	90 e1       	ldi	r25, 0x10	; 16
    259c:	fa 01       	movw	r30, r20
    259e:	29 2f       	mov	r18, r25
    25a0:	22 23       	and	r18, r18
    25a2:	51 f3       	breq	.-44     	; 0x2578 <__vector_11+0xc0>
    25a4:	64 91       	lpm	r22, Z
    25a6:	60 93 f1 00 	sts	0x00F1, r22	; 0x8000f1 <__TEXT_REGION_LENGTH__+0x7f80f1>
    25aa:	21 50       	subi	r18, 0x01	; 1
    25ac:	31 96       	adiw	r30, 0x01	; 1
    25ae:	f8 cf       	rjmp	.-16     	; 0x25a0 <__vector_11+0xe8>
    25b0:	90 31       	cpi	r25, 0x10	; 16
    25b2:	49 f3       	breq	.-46     	; 0x2586 <__vector_11+0xce>
    25b4:	b7 c0       	rjmp	.+366    	; 0x2724 <__vector_11+0x26c>
    25b6:	85 30       	cpi	r24, 0x05	; 5
    25b8:	49 f4       	brne	.+18     	; 0x25cc <__vector_11+0x114>
    25ba:	8e ef       	ldi	r24, 0xFE	; 254
    25bc:	80 93 e8 00 	sts	0x00E8, r24	; 0x8000e8 <__TEXT_REGION_LENGTH__+0x7f80e8>
    25c0:	0e 94 98 11 	call	0x2330	; 0x2330 <usb_wait_in_ready>
    25c4:	00 68       	ori	r16, 0x80	; 128
    25c6:	00 93 e3 00 	sts	0x00E3, r16	; 0x8000e3 <__TEXT_REGION_LENGTH__+0x7f80e3>
    25ca:	ac c0       	rjmp	.+344    	; 0x2724 <__vector_11+0x26c>
    25cc:	89 30       	cpi	r24, 0x09	; 9
    25ce:	59 f5       	brne	.+86     	; 0x2626 <__vector_11+0x16e>
    25d0:	f1 10       	cpse	r15, r1
    25d2:	a5 c0       	rjmp	.+330    	; 0x271e <__vector_11+0x266>
    25d4:	00 93 40 03 	sts	0x0340, r16	; 0x800340 <usb_configuration>
    25d8:	10 92 3d 03 	sts	0x033D, r1	; 0x80033d <cdc_line_rtsdtr>
    25dc:	10 92 3f 03 	sts	0x033F, r1	; 0x80033f <transmit_flush_timer>
    25e0:	8e ef       	ldi	r24, 0xFE	; 254
    25e2:	80 93 e8 00 	sts	0x00E8, r24	; 0x8000e8 <__TEXT_REGION_LENGTH__+0x7f80e8>
    25e6:	41 e0       	ldi	r20, 0x01	; 1
    25e8:	85 e7       	ldi	r24, 0x75	; 117
    25ea:	91 e0       	ldi	r25, 0x01	; 1
    25ec:	40 93 e9 00 	sts	0x00E9, r20	; 0x8000e9 <__TEXT_REGION_LENGTH__+0x7f80e9>
    25f0:	9c 01       	movw	r18, r24
    25f2:	2f 5f       	subi	r18, 0xFF	; 255
    25f4:	3f 4f       	sbci	r19, 0xFF	; 255
    25f6:	fc 01       	movw	r30, r24
    25f8:	54 91       	lpm	r21, Z
    25fa:	50 93 eb 00 	sts	0x00EB, r21	; 0x8000eb <__TEXT_REGION_LENGTH__+0x7f80eb>
    25fe:	55 23       	and	r21, r21
    2600:	59 f0       	breq	.+22     	; 0x2618 <__vector_11+0x160>
    2602:	f9 01       	movw	r30, r18
    2604:	24 91       	lpm	r18, Z
    2606:	20 93 ec 00 	sts	0x00EC, r18	; 0x8000ec <__TEXT_REGION_LENGTH__+0x7f80ec>
    260a:	9c 01       	movw	r18, r24
    260c:	2d 5f       	subi	r18, 0xFD	; 253
    260e:	3f 4f       	sbci	r19, 0xFF	; 255
    2610:	31 96       	adiw	r30, 0x01	; 1
    2612:	e4 91       	lpm	r30, Z
    2614:	e0 93 ed 00 	sts	0x00ED, r30	; 0x8000ed <__TEXT_REGION_LENGTH__+0x7f80ed>
    2618:	4f 5f       	subi	r20, 0xFF	; 255
    261a:	45 30       	cpi	r20, 0x05	; 5
    261c:	11 f0       	breq	.+4      	; 0x2622 <__vector_11+0x16a>
    261e:	c9 01       	movw	r24, r18
    2620:	e5 cf       	rjmp	.-54     	; 0x25ec <__vector_11+0x134>
    2622:	8e e1       	ldi	r24, 0x1E	; 30
    2624:	77 c0       	rjmp	.+238    	; 0x2714 <__vector_11+0x25c>
    2626:	88 30       	cpi	r24, 0x08	; 8
    2628:	51 f4       	brne	.+20     	; 0x263e <__vector_11+0x186>
    262a:	f0 e8       	ldi	r31, 0x80	; 128
    262c:	ff 12       	cpse	r15, r31
    262e:	77 c0       	rjmp	.+238    	; 0x271e <__vector_11+0x266>
    2630:	0e 94 98 11 	call	0x2330	; 0x2330 <usb_wait_in_ready>
    2634:	80 91 40 03 	lds	r24, 0x0340	; 0x800340 <usb_configuration>
    2638:	80 93 f1 00 	sts	0x00F1, r24	; 0x8000f1 <__TEXT_REGION_LENGTH__+0x7f80f1>
    263c:	49 c0       	rjmp	.+146    	; 0x26d0 <__vector_11+0x218>
    263e:	81 32       	cpi	r24, 0x21	; 33
    2640:	81 f4       	brne	.+32     	; 0x2662 <__vector_11+0x1aa>
    2642:	81 ea       	ldi	r24, 0xA1	; 161
    2644:	f8 12       	cpse	r15, r24
    2646:	6b c0       	rjmp	.+214    	; 0x271e <__vector_11+0x266>
    2648:	0e 94 98 11 	call	0x2330	; 0x2330 <usb_wait_in_ready>
    264c:	e0 e0       	ldi	r30, 0x00	; 0
    264e:	f1 e0       	ldi	r31, 0x01	; 1
    2650:	87 e0       	ldi	r24, 0x07	; 7
    2652:	91 e0       	ldi	r25, 0x01	; 1
    2654:	21 91       	ld	r18, Z+
    2656:	20 93 f1 00 	sts	0x00F1, r18	; 0x8000f1 <__TEXT_REGION_LENGTH__+0x7f80f1>
    265a:	8e 17       	cp	r24, r30
    265c:	9f 07       	cpc	r25, r31
    265e:	d1 f7       	brne	.-12     	; 0x2654 <__vector_11+0x19c>
    2660:	37 c0       	rjmp	.+110    	; 0x26d0 <__vector_11+0x218>
    2662:	80 32       	cpi	r24, 0x20	; 32
    2664:	a9 f4       	brne	.+42     	; 0x2690 <__vector_11+0x1d8>
    2666:	91 e2       	ldi	r25, 0x21	; 33
    2668:	f9 12       	cpse	r15, r25
    266a:	59 c0       	rjmp	.+178    	; 0x271e <__vector_11+0x266>
    266c:	80 91 e8 00 	lds	r24, 0x00E8	; 0x8000e8 <__TEXT_REGION_LENGTH__+0x7f80e8>
    2670:	82 ff       	sbrs	r24, 2
    2672:	fc cf       	rjmp	.-8      	; 0x266c <__vector_11+0x1b4>
    2674:	e0 e0       	ldi	r30, 0x00	; 0
    2676:	f1 e0       	ldi	r31, 0x01	; 1
    2678:	87 e0       	ldi	r24, 0x07	; 7
    267a:	91 e0       	ldi	r25, 0x01	; 1
    267c:	20 91 f1 00 	lds	r18, 0x00F1	; 0x8000f1 <__TEXT_REGION_LENGTH__+0x7f80f1>
    2680:	21 93       	st	Z+, r18
    2682:	8e 17       	cp	r24, r30
    2684:	9f 07       	cpc	r25, r31
    2686:	d1 f7       	brne	.-12     	; 0x267c <__vector_11+0x1c4>
    2688:	8b ef       	ldi	r24, 0xFB	; 251
    268a:	80 93 e8 00 	sts	0x00E8, r24	; 0x8000e8 <__TEXT_REGION_LENGTH__+0x7f80e8>
    268e:	20 c0       	rjmp	.+64     	; 0x26d0 <__vector_11+0x218>
    2690:	82 32       	cpi	r24, 0x22	; 34
    2692:	41 f4       	brne	.+16     	; 0x26a4 <__vector_11+0x1ec>
    2694:	e1 e2       	ldi	r30, 0x21	; 33
    2696:	fe 12       	cpse	r15, r30
    2698:	42 c0       	rjmp	.+132    	; 0x271e <__vector_11+0x266>
    269a:	00 93 3d 03 	sts	0x033D, r16	; 0x80033d <cdc_line_rtsdtr>
    269e:	0e 94 98 11 	call	0x2330	; 0x2330 <usb_wait_in_ready>
    26a2:	16 c0       	rjmp	.+44     	; 0x26d0 <__vector_11+0x218>
    26a4:	81 11       	cpse	r24, r1
    26a6:	18 c0       	rjmp	.+48     	; 0x26d8 <__vector_11+0x220>
    26a8:	0e 94 98 11 	call	0x2330	; 0x2330 <usb_wait_in_ready>
    26ac:	f2 e8       	ldi	r31, 0x82	; 130
    26ae:	ff 12       	cpse	r15, r31
    26b0:	0a c0       	rjmp	.+20     	; 0x26c6 <__vector_11+0x20e>
    26b2:	c0 93 e9 00 	sts	0x00E9, r28	; 0x8000e9 <__TEXT_REGION_LENGTH__+0x7f80e9>
    26b6:	80 91 eb 00 	lds	r24, 0x00EB	; 0x8000eb <__TEXT_REGION_LENGTH__+0x7f80eb>
    26ba:	85 fb       	bst	r24, 5
    26bc:	88 27       	eor	r24, r24
    26be:	80 f9       	bld	r24, 0
    26c0:	10 92 e9 00 	sts	0x00E9, r1	; 0x8000e9 <__TEXT_REGION_LENGTH__+0x7f80e9>
    26c4:	01 c0       	rjmp	.+2      	; 0x26c8 <__vector_11+0x210>
    26c6:	80 e0       	ldi	r24, 0x00	; 0
    26c8:	80 93 f1 00 	sts	0x00F1, r24	; 0x8000f1 <__TEXT_REGION_LENGTH__+0x7f80f1>
    26cc:	10 92 f1 00 	sts	0x00F1, r1	; 0x8000f1 <__TEXT_REGION_LENGTH__+0x7f80f1>
    26d0:	8e ef       	ldi	r24, 0xFE	; 254
    26d2:	80 93 e8 00 	sts	0x00E8, r24	; 0x8000e8 <__TEXT_REGION_LENGTH__+0x7f80e8>
    26d6:	26 c0       	rjmp	.+76     	; 0x2724 <__vector_11+0x26c>
    26d8:	98 2f       	mov	r25, r24
    26da:	9d 7f       	andi	r25, 0xFD	; 253
    26dc:	91 30       	cpi	r25, 0x01	; 1
    26de:	f9 f4       	brne	.+62     	; 0x271e <__vector_11+0x266>
    26e0:	92 e0       	ldi	r25, 0x02	; 2
    26e2:	f9 12       	cpse	r15, r25
    26e4:	1c c0       	rjmp	.+56     	; 0x271e <__vector_11+0x266>
    26e6:	01 2b       	or	r16, r17
    26e8:	d1 f4       	brne	.+52     	; 0x271e <__vector_11+0x266>
    26ea:	cf 77       	andi	r28, 0x7F	; 127
    26ec:	9f ef       	ldi	r25, 0xFF	; 255
    26ee:	9c 0f       	add	r25, r28
    26f0:	94 30       	cpi	r25, 0x04	; 4
    26f2:	a8 f4       	brcc	.+42     	; 0x271e <__vector_11+0x266>
    26f4:	9e ef       	ldi	r25, 0xFE	; 254
    26f6:	90 93 e8 00 	sts	0x00E8, r25	; 0x8000e8 <__TEXT_REGION_LENGTH__+0x7f80e8>
    26fa:	c0 93 e9 00 	sts	0x00E9, r28	; 0x8000e9 <__TEXT_REGION_LENGTH__+0x7f80e9>
    26fe:	83 30       	cpi	r24, 0x03	; 3
    2700:	71 f0       	breq	.+28     	; 0x271e <__vector_11+0x266>
    2702:	89 e1       	ldi	r24, 0x19	; 25
    2704:	80 93 eb 00 	sts	0x00EB, r24	; 0x8000eb <__TEXT_REGION_LENGTH__+0x7f80eb>
    2708:	81 e0       	ldi	r24, 0x01	; 1
    270a:	90 e0       	ldi	r25, 0x00	; 0
    270c:	01 c0       	rjmp	.+2      	; 0x2710 <__vector_11+0x258>
    270e:	88 0f       	add	r24, r24
    2710:	ca 95       	dec	r28
    2712:	ea f7       	brpl	.-6      	; 0x270e <__vector_11+0x256>
    2714:	80 93 ea 00 	sts	0x00EA, r24	; 0x8000ea <__TEXT_REGION_LENGTH__+0x7f80ea>
    2718:	10 92 ea 00 	sts	0x00EA, r1	; 0x8000ea <__TEXT_REGION_LENGTH__+0x7f80ea>
    271c:	03 c0       	rjmp	.+6      	; 0x2724 <__vector_11+0x26c>
    271e:	81 e2       	ldi	r24, 0x21	; 33
    2720:	80 93 eb 00 	sts	0x00EB, r24	; 0x8000eb <__TEXT_REGION_LENGTH__+0x7f80eb>
    2724:	ff 91       	pop	r31
    2726:	ef 91       	pop	r30
    2728:	df 91       	pop	r29
    272a:	cf 91       	pop	r28
    272c:	bf 91       	pop	r27
    272e:	af 91       	pop	r26
    2730:	9f 91       	pop	r25
    2732:	8f 91       	pop	r24
    2734:	7f 91       	pop	r23
    2736:	6f 91       	pop	r22
    2738:	5f 91       	pop	r21
    273a:	4f 91       	pop	r20
    273c:	3f 91       	pop	r19
    273e:	2f 91       	pop	r18
    2740:	1f 91       	pop	r17
    2742:	0f 91       	pop	r16
    2744:	ff 90       	pop	r15
    2746:	0f 90       	pop	r0
    2748:	0f be       	out	0x3f, r0	; 63
    274a:	0f 90       	pop	r0
    274c:	1f 90       	pop	r1
    274e:	18 95       	reti

00002750 <__subsf3>:
    2750:	50 58       	subi	r21, 0x80	; 128

00002752 <__addsf3>:
    2752:	bb 27       	eor	r27, r27
    2754:	aa 27       	eor	r26, r26
    2756:	0e 94 c0 13 	call	0x2780	; 0x2780 <__addsf3x>
    275a:	0c 94 3a 15 	jmp	0x2a74	; 0x2a74 <__fp_round>
    275e:	0e 94 2c 15 	call	0x2a58	; 0x2a58 <__fp_pscA>
    2762:	38 f0       	brcs	.+14     	; 0x2772 <__addsf3+0x20>
    2764:	0e 94 33 15 	call	0x2a66	; 0x2a66 <__fp_pscB>
    2768:	20 f0       	brcs	.+8      	; 0x2772 <__addsf3+0x20>
    276a:	39 f4       	brne	.+14     	; 0x277a <__addsf3+0x28>
    276c:	9f 3f       	cpi	r25, 0xFF	; 255
    276e:	19 f4       	brne	.+6      	; 0x2776 <__addsf3+0x24>
    2770:	26 f4       	brtc	.+8      	; 0x277a <__addsf3+0x28>
    2772:	0c 94 29 15 	jmp	0x2a52	; 0x2a52 <__fp_nan>
    2776:	0e f4       	brtc	.+2      	; 0x277a <__addsf3+0x28>
    2778:	e0 95       	com	r30
    277a:	e7 fb       	bst	r30, 7
    277c:	0c 94 23 15 	jmp	0x2a46	; 0x2a46 <__fp_inf>

00002780 <__addsf3x>:
    2780:	e9 2f       	mov	r30, r25
    2782:	0e 94 4b 15 	call	0x2a96	; 0x2a96 <__fp_split3>
    2786:	58 f3       	brcs	.-42     	; 0x275e <__addsf3+0xc>
    2788:	ba 17       	cp	r27, r26
    278a:	62 07       	cpc	r22, r18
    278c:	73 07       	cpc	r23, r19
    278e:	84 07       	cpc	r24, r20
    2790:	95 07       	cpc	r25, r21
    2792:	20 f0       	brcs	.+8      	; 0x279c <__addsf3x+0x1c>
    2794:	79 f4       	brne	.+30     	; 0x27b4 <__addsf3x+0x34>
    2796:	a6 f5       	brtc	.+104    	; 0x2800 <__addsf3x+0x80>
    2798:	0c 94 6d 15 	jmp	0x2ada	; 0x2ada <__fp_zero>
    279c:	0e f4       	brtc	.+2      	; 0x27a0 <__addsf3x+0x20>
    279e:	e0 95       	com	r30
    27a0:	0b 2e       	mov	r0, r27
    27a2:	ba 2f       	mov	r27, r26
    27a4:	a0 2d       	mov	r26, r0
    27a6:	0b 01       	movw	r0, r22
    27a8:	b9 01       	movw	r22, r18
    27aa:	90 01       	movw	r18, r0
    27ac:	0c 01       	movw	r0, r24
    27ae:	ca 01       	movw	r24, r20
    27b0:	a0 01       	movw	r20, r0
    27b2:	11 24       	eor	r1, r1
    27b4:	ff 27       	eor	r31, r31
    27b6:	59 1b       	sub	r21, r25
    27b8:	99 f0       	breq	.+38     	; 0x27e0 <__addsf3x+0x60>
    27ba:	59 3f       	cpi	r21, 0xF9	; 249
    27bc:	50 f4       	brcc	.+20     	; 0x27d2 <__addsf3x+0x52>
    27be:	50 3e       	cpi	r21, 0xE0	; 224
    27c0:	68 f1       	brcs	.+90     	; 0x281c <__addsf3x+0x9c>
    27c2:	1a 16       	cp	r1, r26
    27c4:	f0 40       	sbci	r31, 0x00	; 0
    27c6:	a2 2f       	mov	r26, r18
    27c8:	23 2f       	mov	r18, r19
    27ca:	34 2f       	mov	r19, r20
    27cc:	44 27       	eor	r20, r20
    27ce:	58 5f       	subi	r21, 0xF8	; 248
    27d0:	f3 cf       	rjmp	.-26     	; 0x27b8 <__addsf3x+0x38>
    27d2:	46 95       	lsr	r20
    27d4:	37 95       	ror	r19
    27d6:	27 95       	ror	r18
    27d8:	a7 95       	ror	r26
    27da:	f0 40       	sbci	r31, 0x00	; 0
    27dc:	53 95       	inc	r21
    27de:	c9 f7       	brne	.-14     	; 0x27d2 <__addsf3x+0x52>
    27e0:	7e f4       	brtc	.+30     	; 0x2800 <__addsf3x+0x80>
    27e2:	1f 16       	cp	r1, r31
    27e4:	ba 0b       	sbc	r27, r26
    27e6:	62 0b       	sbc	r22, r18
    27e8:	73 0b       	sbc	r23, r19
    27ea:	84 0b       	sbc	r24, r20
    27ec:	ba f0       	brmi	.+46     	; 0x281c <__addsf3x+0x9c>
    27ee:	91 50       	subi	r25, 0x01	; 1
    27f0:	a1 f0       	breq	.+40     	; 0x281a <__addsf3x+0x9a>
    27f2:	ff 0f       	add	r31, r31
    27f4:	bb 1f       	adc	r27, r27
    27f6:	66 1f       	adc	r22, r22
    27f8:	77 1f       	adc	r23, r23
    27fa:	88 1f       	adc	r24, r24
    27fc:	c2 f7       	brpl	.-16     	; 0x27ee <__addsf3x+0x6e>
    27fe:	0e c0       	rjmp	.+28     	; 0x281c <__addsf3x+0x9c>
    2800:	ba 0f       	add	r27, r26
    2802:	62 1f       	adc	r22, r18
    2804:	73 1f       	adc	r23, r19
    2806:	84 1f       	adc	r24, r20
    2808:	48 f4       	brcc	.+18     	; 0x281c <__addsf3x+0x9c>
    280a:	87 95       	ror	r24
    280c:	77 95       	ror	r23
    280e:	67 95       	ror	r22
    2810:	b7 95       	ror	r27
    2812:	f7 95       	ror	r31
    2814:	9e 3f       	cpi	r25, 0xFE	; 254
    2816:	08 f0       	brcs	.+2      	; 0x281a <__addsf3x+0x9a>
    2818:	b0 cf       	rjmp	.-160    	; 0x277a <__addsf3+0x28>
    281a:	93 95       	inc	r25
    281c:	88 0f       	add	r24, r24
    281e:	08 f0       	brcs	.+2      	; 0x2822 <__addsf3x+0xa2>
    2820:	99 27       	eor	r25, r25
    2822:	ee 0f       	add	r30, r30
    2824:	97 95       	ror	r25
    2826:	87 95       	ror	r24
    2828:	08 95       	ret

0000282a <__cmpsf2>:
    282a:	0e 94 ff 14 	call	0x29fe	; 0x29fe <__fp_cmp>
    282e:	08 f4       	brcc	.+2      	; 0x2832 <__cmpsf2+0x8>
    2830:	81 e0       	ldi	r24, 0x01	; 1
    2832:	08 95       	ret

00002834 <__divsf3>:
    2834:	0e 94 2e 14 	call	0x285c	; 0x285c <__divsf3x>
    2838:	0c 94 3a 15 	jmp	0x2a74	; 0x2a74 <__fp_round>
    283c:	0e 94 33 15 	call	0x2a66	; 0x2a66 <__fp_pscB>
    2840:	58 f0       	brcs	.+22     	; 0x2858 <__divsf3+0x24>
    2842:	0e 94 2c 15 	call	0x2a58	; 0x2a58 <__fp_pscA>
    2846:	40 f0       	brcs	.+16     	; 0x2858 <__divsf3+0x24>
    2848:	29 f4       	brne	.+10     	; 0x2854 <__divsf3+0x20>
    284a:	5f 3f       	cpi	r21, 0xFF	; 255
    284c:	29 f0       	breq	.+10     	; 0x2858 <__divsf3+0x24>
    284e:	0c 94 23 15 	jmp	0x2a46	; 0x2a46 <__fp_inf>
    2852:	51 11       	cpse	r21, r1
    2854:	0c 94 6e 15 	jmp	0x2adc	; 0x2adc <__fp_szero>
    2858:	0c 94 29 15 	jmp	0x2a52	; 0x2a52 <__fp_nan>

0000285c <__divsf3x>:
    285c:	0e 94 4b 15 	call	0x2a96	; 0x2a96 <__fp_split3>
    2860:	68 f3       	brcs	.-38     	; 0x283c <__divsf3+0x8>

00002862 <__divsf3_pse>:
    2862:	99 23       	and	r25, r25
    2864:	b1 f3       	breq	.-20     	; 0x2852 <__divsf3+0x1e>
    2866:	55 23       	and	r21, r21
    2868:	91 f3       	breq	.-28     	; 0x284e <__divsf3+0x1a>
    286a:	95 1b       	sub	r25, r21
    286c:	55 0b       	sbc	r21, r21
    286e:	bb 27       	eor	r27, r27
    2870:	aa 27       	eor	r26, r26
    2872:	62 17       	cp	r22, r18
    2874:	73 07       	cpc	r23, r19
    2876:	84 07       	cpc	r24, r20
    2878:	38 f0       	brcs	.+14     	; 0x2888 <__divsf3_pse+0x26>
    287a:	9f 5f       	subi	r25, 0xFF	; 255
    287c:	5f 4f       	sbci	r21, 0xFF	; 255
    287e:	22 0f       	add	r18, r18
    2880:	33 1f       	adc	r19, r19
    2882:	44 1f       	adc	r20, r20
    2884:	aa 1f       	adc	r26, r26
    2886:	a9 f3       	breq	.-22     	; 0x2872 <__divsf3_pse+0x10>
    2888:	35 d0       	rcall	.+106    	; 0x28f4 <__divsf3_pse+0x92>
    288a:	0e 2e       	mov	r0, r30
    288c:	3a f0       	brmi	.+14     	; 0x289c <__divsf3_pse+0x3a>
    288e:	e0 e8       	ldi	r30, 0x80	; 128
    2890:	32 d0       	rcall	.+100    	; 0x28f6 <__divsf3_pse+0x94>
    2892:	91 50       	subi	r25, 0x01	; 1
    2894:	50 40       	sbci	r21, 0x00	; 0
    2896:	e6 95       	lsr	r30
    2898:	00 1c       	adc	r0, r0
    289a:	ca f7       	brpl	.-14     	; 0x288e <__divsf3_pse+0x2c>
    289c:	2b d0       	rcall	.+86     	; 0x28f4 <__divsf3_pse+0x92>
    289e:	fe 2f       	mov	r31, r30
    28a0:	29 d0       	rcall	.+82     	; 0x28f4 <__divsf3_pse+0x92>
    28a2:	66 0f       	add	r22, r22
    28a4:	77 1f       	adc	r23, r23
    28a6:	88 1f       	adc	r24, r24
    28a8:	bb 1f       	adc	r27, r27
    28aa:	26 17       	cp	r18, r22
    28ac:	37 07       	cpc	r19, r23
    28ae:	48 07       	cpc	r20, r24
    28b0:	ab 07       	cpc	r26, r27
    28b2:	b0 e8       	ldi	r27, 0x80	; 128
    28b4:	09 f0       	breq	.+2      	; 0x28b8 <__divsf3_pse+0x56>
    28b6:	bb 0b       	sbc	r27, r27
    28b8:	80 2d       	mov	r24, r0
    28ba:	bf 01       	movw	r22, r30
    28bc:	ff 27       	eor	r31, r31
    28be:	93 58       	subi	r25, 0x83	; 131
    28c0:	5f 4f       	sbci	r21, 0xFF	; 255
    28c2:	3a f0       	brmi	.+14     	; 0x28d2 <__divsf3_pse+0x70>
    28c4:	9e 3f       	cpi	r25, 0xFE	; 254
    28c6:	51 05       	cpc	r21, r1
    28c8:	78 f0       	brcs	.+30     	; 0x28e8 <__divsf3_pse+0x86>
    28ca:	0c 94 23 15 	jmp	0x2a46	; 0x2a46 <__fp_inf>
    28ce:	0c 94 6e 15 	jmp	0x2adc	; 0x2adc <__fp_szero>
    28d2:	5f 3f       	cpi	r21, 0xFF	; 255
    28d4:	e4 f3       	brlt	.-8      	; 0x28ce <__divsf3_pse+0x6c>
    28d6:	98 3e       	cpi	r25, 0xE8	; 232
    28d8:	d4 f3       	brlt	.-12     	; 0x28ce <__divsf3_pse+0x6c>
    28da:	86 95       	lsr	r24
    28dc:	77 95       	ror	r23
    28de:	67 95       	ror	r22
    28e0:	b7 95       	ror	r27
    28e2:	f7 95       	ror	r31
    28e4:	9f 5f       	subi	r25, 0xFF	; 255
    28e6:	c9 f7       	brne	.-14     	; 0x28da <__divsf3_pse+0x78>
    28e8:	88 0f       	add	r24, r24
    28ea:	91 1d       	adc	r25, r1
    28ec:	96 95       	lsr	r25
    28ee:	87 95       	ror	r24
    28f0:	97 f9       	bld	r25, 7
    28f2:	08 95       	ret
    28f4:	e1 e0       	ldi	r30, 0x01	; 1
    28f6:	66 0f       	add	r22, r22
    28f8:	77 1f       	adc	r23, r23
    28fa:	88 1f       	adc	r24, r24
    28fc:	bb 1f       	adc	r27, r27
    28fe:	62 17       	cp	r22, r18
    2900:	73 07       	cpc	r23, r19
    2902:	84 07       	cpc	r24, r20
    2904:	ba 07       	cpc	r27, r26
    2906:	20 f0       	brcs	.+8      	; 0x2910 <__divsf3_pse+0xae>
    2908:	62 1b       	sub	r22, r18
    290a:	73 0b       	sbc	r23, r19
    290c:	84 0b       	sbc	r24, r20
    290e:	ba 0b       	sbc	r27, r26
    2910:	ee 1f       	adc	r30, r30
    2912:	88 f7       	brcc	.-30     	; 0x28f6 <__divsf3_pse+0x94>
    2914:	e0 95       	com	r30
    2916:	08 95       	ret

00002918 <__fixsfsi>:
    2918:	0e 94 93 14 	call	0x2926	; 0x2926 <__fixunssfsi>
    291c:	68 94       	set
    291e:	b1 11       	cpse	r27, r1
    2920:	0c 94 6e 15 	jmp	0x2adc	; 0x2adc <__fp_szero>
    2924:	08 95       	ret

00002926 <__fixunssfsi>:
    2926:	0e 94 53 15 	call	0x2aa6	; 0x2aa6 <__fp_splitA>
    292a:	88 f0       	brcs	.+34     	; 0x294e <__fixunssfsi+0x28>
    292c:	9f 57       	subi	r25, 0x7F	; 127
    292e:	98 f0       	brcs	.+38     	; 0x2956 <__fixunssfsi+0x30>
    2930:	b9 2f       	mov	r27, r25
    2932:	99 27       	eor	r25, r25
    2934:	b7 51       	subi	r27, 0x17	; 23
    2936:	b0 f0       	brcs	.+44     	; 0x2964 <__fixunssfsi+0x3e>
    2938:	e1 f0       	breq	.+56     	; 0x2972 <__fixunssfsi+0x4c>
    293a:	66 0f       	add	r22, r22
    293c:	77 1f       	adc	r23, r23
    293e:	88 1f       	adc	r24, r24
    2940:	99 1f       	adc	r25, r25
    2942:	1a f0       	brmi	.+6      	; 0x294a <__fixunssfsi+0x24>
    2944:	ba 95       	dec	r27
    2946:	c9 f7       	brne	.-14     	; 0x293a <__fixunssfsi+0x14>
    2948:	14 c0       	rjmp	.+40     	; 0x2972 <__fixunssfsi+0x4c>
    294a:	b1 30       	cpi	r27, 0x01	; 1
    294c:	91 f0       	breq	.+36     	; 0x2972 <__fixunssfsi+0x4c>
    294e:	0e 94 6d 15 	call	0x2ada	; 0x2ada <__fp_zero>
    2952:	b1 e0       	ldi	r27, 0x01	; 1
    2954:	08 95       	ret
    2956:	0c 94 6d 15 	jmp	0x2ada	; 0x2ada <__fp_zero>
    295a:	67 2f       	mov	r22, r23
    295c:	78 2f       	mov	r23, r24
    295e:	88 27       	eor	r24, r24
    2960:	b8 5f       	subi	r27, 0xF8	; 248
    2962:	39 f0       	breq	.+14     	; 0x2972 <__fixunssfsi+0x4c>
    2964:	b9 3f       	cpi	r27, 0xF9	; 249
    2966:	cc f3       	brlt	.-14     	; 0x295a <__fixunssfsi+0x34>
    2968:	86 95       	lsr	r24
    296a:	77 95       	ror	r23
    296c:	67 95       	ror	r22
    296e:	b3 95       	inc	r27
    2970:	d9 f7       	brne	.-10     	; 0x2968 <__fixunssfsi+0x42>
    2972:	3e f4       	brtc	.+14     	; 0x2982 <__fixunssfsi+0x5c>
    2974:	90 95       	com	r25
    2976:	80 95       	com	r24
    2978:	70 95       	com	r23
    297a:	61 95       	neg	r22
    297c:	7f 4f       	sbci	r23, 0xFF	; 255
    297e:	8f 4f       	sbci	r24, 0xFF	; 255
    2980:	9f 4f       	sbci	r25, 0xFF	; 255
    2982:	08 95       	ret

00002984 <__floatunsisf>:
    2984:	e8 94       	clt
    2986:	09 c0       	rjmp	.+18     	; 0x299a <__floatsisf+0x12>

00002988 <__floatsisf>:
    2988:	97 fb       	bst	r25, 7
    298a:	3e f4       	brtc	.+14     	; 0x299a <__floatsisf+0x12>
    298c:	90 95       	com	r25
    298e:	80 95       	com	r24
    2990:	70 95       	com	r23
    2992:	61 95       	neg	r22
    2994:	7f 4f       	sbci	r23, 0xFF	; 255
    2996:	8f 4f       	sbci	r24, 0xFF	; 255
    2998:	9f 4f       	sbci	r25, 0xFF	; 255
    299a:	99 23       	and	r25, r25
    299c:	a9 f0       	breq	.+42     	; 0x29c8 <__floatsisf+0x40>
    299e:	f9 2f       	mov	r31, r25
    29a0:	96 e9       	ldi	r25, 0x96	; 150
    29a2:	bb 27       	eor	r27, r27
    29a4:	93 95       	inc	r25
    29a6:	f6 95       	lsr	r31
    29a8:	87 95       	ror	r24
    29aa:	77 95       	ror	r23
    29ac:	67 95       	ror	r22
    29ae:	b7 95       	ror	r27
    29b0:	f1 11       	cpse	r31, r1
    29b2:	f8 cf       	rjmp	.-16     	; 0x29a4 <__floatsisf+0x1c>
    29b4:	fa f4       	brpl	.+62     	; 0x29f4 <__floatsisf+0x6c>
    29b6:	bb 0f       	add	r27, r27
    29b8:	11 f4       	brne	.+4      	; 0x29be <__floatsisf+0x36>
    29ba:	60 ff       	sbrs	r22, 0
    29bc:	1b c0       	rjmp	.+54     	; 0x29f4 <__floatsisf+0x6c>
    29be:	6f 5f       	subi	r22, 0xFF	; 255
    29c0:	7f 4f       	sbci	r23, 0xFF	; 255
    29c2:	8f 4f       	sbci	r24, 0xFF	; 255
    29c4:	9f 4f       	sbci	r25, 0xFF	; 255
    29c6:	16 c0       	rjmp	.+44     	; 0x29f4 <__floatsisf+0x6c>
    29c8:	88 23       	and	r24, r24
    29ca:	11 f0       	breq	.+4      	; 0x29d0 <__floatsisf+0x48>
    29cc:	96 e9       	ldi	r25, 0x96	; 150
    29ce:	11 c0       	rjmp	.+34     	; 0x29f2 <__floatsisf+0x6a>
    29d0:	77 23       	and	r23, r23
    29d2:	21 f0       	breq	.+8      	; 0x29dc <__floatsisf+0x54>
    29d4:	9e e8       	ldi	r25, 0x8E	; 142
    29d6:	87 2f       	mov	r24, r23
    29d8:	76 2f       	mov	r23, r22
    29da:	05 c0       	rjmp	.+10     	; 0x29e6 <__floatsisf+0x5e>
    29dc:	66 23       	and	r22, r22
    29de:	71 f0       	breq	.+28     	; 0x29fc <__floatsisf+0x74>
    29e0:	96 e8       	ldi	r25, 0x86	; 134
    29e2:	86 2f       	mov	r24, r22
    29e4:	70 e0       	ldi	r23, 0x00	; 0
    29e6:	60 e0       	ldi	r22, 0x00	; 0
    29e8:	2a f0       	brmi	.+10     	; 0x29f4 <__floatsisf+0x6c>
    29ea:	9a 95       	dec	r25
    29ec:	66 0f       	add	r22, r22
    29ee:	77 1f       	adc	r23, r23
    29f0:	88 1f       	adc	r24, r24
    29f2:	da f7       	brpl	.-10     	; 0x29ea <__floatsisf+0x62>
    29f4:	88 0f       	add	r24, r24
    29f6:	96 95       	lsr	r25
    29f8:	87 95       	ror	r24
    29fa:	97 f9       	bld	r25, 7
    29fc:	08 95       	ret

000029fe <__fp_cmp>:
    29fe:	99 0f       	add	r25, r25
    2a00:	00 08       	sbc	r0, r0
    2a02:	55 0f       	add	r21, r21
    2a04:	aa 0b       	sbc	r26, r26
    2a06:	e0 e8       	ldi	r30, 0x80	; 128
    2a08:	fe ef       	ldi	r31, 0xFE	; 254
    2a0a:	16 16       	cp	r1, r22
    2a0c:	17 06       	cpc	r1, r23
    2a0e:	e8 07       	cpc	r30, r24
    2a10:	f9 07       	cpc	r31, r25
    2a12:	c0 f0       	brcs	.+48     	; 0x2a44 <__fp_cmp+0x46>
    2a14:	12 16       	cp	r1, r18
    2a16:	13 06       	cpc	r1, r19
    2a18:	e4 07       	cpc	r30, r20
    2a1a:	f5 07       	cpc	r31, r21
    2a1c:	98 f0       	brcs	.+38     	; 0x2a44 <__fp_cmp+0x46>
    2a1e:	62 1b       	sub	r22, r18
    2a20:	73 0b       	sbc	r23, r19
    2a22:	84 0b       	sbc	r24, r20
    2a24:	95 0b       	sbc	r25, r21
    2a26:	39 f4       	brne	.+14     	; 0x2a36 <__fp_cmp+0x38>
    2a28:	0a 26       	eor	r0, r26
    2a2a:	61 f0       	breq	.+24     	; 0x2a44 <__fp_cmp+0x46>
    2a2c:	23 2b       	or	r18, r19
    2a2e:	24 2b       	or	r18, r20
    2a30:	25 2b       	or	r18, r21
    2a32:	21 f4       	brne	.+8      	; 0x2a3c <__fp_cmp+0x3e>
    2a34:	08 95       	ret
    2a36:	0a 26       	eor	r0, r26
    2a38:	09 f4       	brne	.+2      	; 0x2a3c <__fp_cmp+0x3e>
    2a3a:	a1 40       	sbci	r26, 0x01	; 1
    2a3c:	a6 95       	lsr	r26
    2a3e:	8f ef       	ldi	r24, 0xFF	; 255
    2a40:	81 1d       	adc	r24, r1
    2a42:	81 1d       	adc	r24, r1
    2a44:	08 95       	ret

00002a46 <__fp_inf>:
    2a46:	97 f9       	bld	r25, 7
    2a48:	9f 67       	ori	r25, 0x7F	; 127
    2a4a:	80 e8       	ldi	r24, 0x80	; 128
    2a4c:	70 e0       	ldi	r23, 0x00	; 0
    2a4e:	60 e0       	ldi	r22, 0x00	; 0
    2a50:	08 95       	ret

00002a52 <__fp_nan>:
    2a52:	9f ef       	ldi	r25, 0xFF	; 255
    2a54:	80 ec       	ldi	r24, 0xC0	; 192
    2a56:	08 95       	ret

00002a58 <__fp_pscA>:
    2a58:	00 24       	eor	r0, r0
    2a5a:	0a 94       	dec	r0
    2a5c:	16 16       	cp	r1, r22
    2a5e:	17 06       	cpc	r1, r23
    2a60:	18 06       	cpc	r1, r24
    2a62:	09 06       	cpc	r0, r25
    2a64:	08 95       	ret

00002a66 <__fp_pscB>:
    2a66:	00 24       	eor	r0, r0
    2a68:	0a 94       	dec	r0
    2a6a:	12 16       	cp	r1, r18
    2a6c:	13 06       	cpc	r1, r19
    2a6e:	14 06       	cpc	r1, r20
    2a70:	05 06       	cpc	r0, r21
    2a72:	08 95       	ret

00002a74 <__fp_round>:
    2a74:	09 2e       	mov	r0, r25
    2a76:	03 94       	inc	r0
    2a78:	00 0c       	add	r0, r0
    2a7a:	11 f4       	brne	.+4      	; 0x2a80 <__fp_round+0xc>
    2a7c:	88 23       	and	r24, r24
    2a7e:	52 f0       	brmi	.+20     	; 0x2a94 <__fp_round+0x20>
    2a80:	bb 0f       	add	r27, r27
    2a82:	40 f4       	brcc	.+16     	; 0x2a94 <__fp_round+0x20>
    2a84:	bf 2b       	or	r27, r31
    2a86:	11 f4       	brne	.+4      	; 0x2a8c <__fp_round+0x18>
    2a88:	60 ff       	sbrs	r22, 0
    2a8a:	04 c0       	rjmp	.+8      	; 0x2a94 <__fp_round+0x20>
    2a8c:	6f 5f       	subi	r22, 0xFF	; 255
    2a8e:	7f 4f       	sbci	r23, 0xFF	; 255
    2a90:	8f 4f       	sbci	r24, 0xFF	; 255
    2a92:	9f 4f       	sbci	r25, 0xFF	; 255
    2a94:	08 95       	ret

00002a96 <__fp_split3>:
    2a96:	57 fd       	sbrc	r21, 7
    2a98:	90 58       	subi	r25, 0x80	; 128
    2a9a:	44 0f       	add	r20, r20
    2a9c:	55 1f       	adc	r21, r21
    2a9e:	59 f0       	breq	.+22     	; 0x2ab6 <__fp_splitA+0x10>
    2aa0:	5f 3f       	cpi	r21, 0xFF	; 255
    2aa2:	71 f0       	breq	.+28     	; 0x2ac0 <__fp_splitA+0x1a>
    2aa4:	47 95       	ror	r20

00002aa6 <__fp_splitA>:
    2aa6:	88 0f       	add	r24, r24
    2aa8:	97 fb       	bst	r25, 7
    2aaa:	99 1f       	adc	r25, r25
    2aac:	61 f0       	breq	.+24     	; 0x2ac6 <__fp_splitA+0x20>
    2aae:	9f 3f       	cpi	r25, 0xFF	; 255
    2ab0:	79 f0       	breq	.+30     	; 0x2ad0 <__fp_splitA+0x2a>
    2ab2:	87 95       	ror	r24
    2ab4:	08 95       	ret
    2ab6:	12 16       	cp	r1, r18
    2ab8:	13 06       	cpc	r1, r19
    2aba:	14 06       	cpc	r1, r20
    2abc:	55 1f       	adc	r21, r21
    2abe:	f2 cf       	rjmp	.-28     	; 0x2aa4 <__fp_split3+0xe>
    2ac0:	46 95       	lsr	r20
    2ac2:	f1 df       	rcall	.-30     	; 0x2aa6 <__fp_splitA>
    2ac4:	08 c0       	rjmp	.+16     	; 0x2ad6 <__fp_splitA+0x30>
    2ac6:	16 16       	cp	r1, r22
    2ac8:	17 06       	cpc	r1, r23
    2aca:	18 06       	cpc	r1, r24
    2acc:	99 1f       	adc	r25, r25
    2ace:	f1 cf       	rjmp	.-30     	; 0x2ab2 <__fp_splitA+0xc>
    2ad0:	86 95       	lsr	r24
    2ad2:	71 05       	cpc	r23, r1
    2ad4:	61 05       	cpc	r22, r1
    2ad6:	08 94       	sec
    2ad8:	08 95       	ret

00002ada <__fp_zero>:
    2ada:	e8 94       	clt

00002adc <__fp_szero>:
    2adc:	bb 27       	eor	r27, r27
    2ade:	66 27       	eor	r22, r22
    2ae0:	77 27       	eor	r23, r23
    2ae2:	cb 01       	movw	r24, r22
    2ae4:	97 f9       	bld	r25, 7
    2ae6:	08 95       	ret

00002ae8 <__mulsf3>:
    2ae8:	0e 94 87 15 	call	0x2b0e	; 0x2b0e <__mulsf3x>
    2aec:	0c 94 3a 15 	jmp	0x2a74	; 0x2a74 <__fp_round>
    2af0:	0e 94 2c 15 	call	0x2a58	; 0x2a58 <__fp_pscA>
    2af4:	38 f0       	brcs	.+14     	; 0x2b04 <__mulsf3+0x1c>
    2af6:	0e 94 33 15 	call	0x2a66	; 0x2a66 <__fp_pscB>
    2afa:	20 f0       	brcs	.+8      	; 0x2b04 <__mulsf3+0x1c>
    2afc:	95 23       	and	r25, r21
    2afe:	11 f0       	breq	.+4      	; 0x2b04 <__mulsf3+0x1c>
    2b00:	0c 94 23 15 	jmp	0x2a46	; 0x2a46 <__fp_inf>
    2b04:	0c 94 29 15 	jmp	0x2a52	; 0x2a52 <__fp_nan>
    2b08:	11 24       	eor	r1, r1
    2b0a:	0c 94 6e 15 	jmp	0x2adc	; 0x2adc <__fp_szero>

00002b0e <__mulsf3x>:
    2b0e:	0e 94 4b 15 	call	0x2a96	; 0x2a96 <__fp_split3>
    2b12:	70 f3       	brcs	.-36     	; 0x2af0 <__mulsf3+0x8>

00002b14 <__mulsf3_pse>:
    2b14:	95 9f       	mul	r25, r21
    2b16:	c1 f3       	breq	.-16     	; 0x2b08 <__mulsf3+0x20>
    2b18:	95 0f       	add	r25, r21
    2b1a:	50 e0       	ldi	r21, 0x00	; 0
    2b1c:	55 1f       	adc	r21, r21
    2b1e:	62 9f       	mul	r22, r18
    2b20:	f0 01       	movw	r30, r0
    2b22:	72 9f       	mul	r23, r18
    2b24:	bb 27       	eor	r27, r27
    2b26:	f0 0d       	add	r31, r0
    2b28:	b1 1d       	adc	r27, r1
    2b2a:	63 9f       	mul	r22, r19
    2b2c:	aa 27       	eor	r26, r26
    2b2e:	f0 0d       	add	r31, r0
    2b30:	b1 1d       	adc	r27, r1
    2b32:	aa 1f       	adc	r26, r26
    2b34:	64 9f       	mul	r22, r20
    2b36:	66 27       	eor	r22, r22
    2b38:	b0 0d       	add	r27, r0
    2b3a:	a1 1d       	adc	r26, r1
    2b3c:	66 1f       	adc	r22, r22
    2b3e:	82 9f       	mul	r24, r18
    2b40:	22 27       	eor	r18, r18
    2b42:	b0 0d       	add	r27, r0
    2b44:	a1 1d       	adc	r26, r1
    2b46:	62 1f       	adc	r22, r18
    2b48:	73 9f       	mul	r23, r19
    2b4a:	b0 0d       	add	r27, r0
    2b4c:	a1 1d       	adc	r26, r1
    2b4e:	62 1f       	adc	r22, r18
    2b50:	83 9f       	mul	r24, r19
    2b52:	a0 0d       	add	r26, r0
    2b54:	61 1d       	adc	r22, r1
    2b56:	22 1f       	adc	r18, r18
    2b58:	74 9f       	mul	r23, r20
    2b5a:	33 27       	eor	r19, r19
    2b5c:	a0 0d       	add	r26, r0
    2b5e:	61 1d       	adc	r22, r1
    2b60:	23 1f       	adc	r18, r19
    2b62:	84 9f       	mul	r24, r20
    2b64:	60 0d       	add	r22, r0
    2b66:	21 1d       	adc	r18, r1
    2b68:	82 2f       	mov	r24, r18
    2b6a:	76 2f       	mov	r23, r22
    2b6c:	6a 2f       	mov	r22, r26
    2b6e:	11 24       	eor	r1, r1
    2b70:	9f 57       	subi	r25, 0x7F	; 127
    2b72:	50 40       	sbci	r21, 0x00	; 0
    2b74:	9a f0       	brmi	.+38     	; 0x2b9c <__mulsf3_pse+0x88>
    2b76:	f1 f0       	breq	.+60     	; 0x2bb4 <__mulsf3_pse+0xa0>
    2b78:	88 23       	and	r24, r24
    2b7a:	4a f0       	brmi	.+18     	; 0x2b8e <__mulsf3_pse+0x7a>
    2b7c:	ee 0f       	add	r30, r30
    2b7e:	ff 1f       	adc	r31, r31
    2b80:	bb 1f       	adc	r27, r27
    2b82:	66 1f       	adc	r22, r22
    2b84:	77 1f       	adc	r23, r23
    2b86:	88 1f       	adc	r24, r24
    2b88:	91 50       	subi	r25, 0x01	; 1
    2b8a:	50 40       	sbci	r21, 0x00	; 0
    2b8c:	a9 f7       	brne	.-22     	; 0x2b78 <__mulsf3_pse+0x64>
    2b8e:	9e 3f       	cpi	r25, 0xFE	; 254
    2b90:	51 05       	cpc	r21, r1
    2b92:	80 f0       	brcs	.+32     	; 0x2bb4 <__mulsf3_pse+0xa0>
    2b94:	0c 94 23 15 	jmp	0x2a46	; 0x2a46 <__fp_inf>
    2b98:	0c 94 6e 15 	jmp	0x2adc	; 0x2adc <__fp_szero>
    2b9c:	5f 3f       	cpi	r21, 0xFF	; 255
    2b9e:	e4 f3       	brlt	.-8      	; 0x2b98 <__mulsf3_pse+0x84>
    2ba0:	98 3e       	cpi	r25, 0xE8	; 232
    2ba2:	d4 f3       	brlt	.-12     	; 0x2b98 <__mulsf3_pse+0x84>
    2ba4:	86 95       	lsr	r24
    2ba6:	77 95       	ror	r23
    2ba8:	67 95       	ror	r22
    2baa:	b7 95       	ror	r27
    2bac:	f7 95       	ror	r31
    2bae:	e7 95       	ror	r30
    2bb0:	9f 5f       	subi	r25, 0xFF	; 255
    2bb2:	c1 f7       	brne	.-16     	; 0x2ba4 <__mulsf3_pse+0x90>
    2bb4:	fe 2b       	or	r31, r30
    2bb6:	88 0f       	add	r24, r24
    2bb8:	91 1d       	adc	r25, r1
    2bba:	96 95       	lsr	r25
    2bbc:	87 95       	ror	r24
    2bbe:	97 f9       	bld	r25, 7
    2bc0:	08 95       	ret

00002bc2 <__tablejump2__>:
    2bc2:	ee 0f       	add	r30, r30
    2bc4:	ff 1f       	adc	r31, r31
    2bc6:	05 90       	lpm	r0, Z+
    2bc8:	f4 91       	lpm	r31, Z
    2bca:	e0 2d       	mov	r30, r0
    2bcc:	09 94       	ijmp

00002bce <sprintf>:
    2bce:	ae e0       	ldi	r26, 0x0E	; 14
    2bd0:	b0 e0       	ldi	r27, 0x00	; 0
    2bd2:	ed ee       	ldi	r30, 0xED	; 237
    2bd4:	f5 e1       	ldi	r31, 0x15	; 21
    2bd6:	0c 94 26 1c 	jmp	0x384c	; 0x384c <__prologue_saves__+0x1c>
    2bda:	0d 89       	ldd	r16, Y+21	; 0x15
    2bdc:	1e 89       	ldd	r17, Y+22	; 0x16
    2bde:	86 e0       	ldi	r24, 0x06	; 6
    2be0:	8c 83       	std	Y+4, r24	; 0x04
    2be2:	1a 83       	std	Y+2, r17	; 0x02
    2be4:	09 83       	std	Y+1, r16	; 0x01
    2be6:	8f ef       	ldi	r24, 0xFF	; 255
    2be8:	9f e7       	ldi	r25, 0x7F	; 127
    2bea:	9e 83       	std	Y+6, r25	; 0x06
    2bec:	8d 83       	std	Y+5, r24	; 0x05
    2bee:	ae 01       	movw	r20, r28
    2bf0:	47 5e       	subi	r20, 0xE7	; 231
    2bf2:	5f 4f       	sbci	r21, 0xFF	; 255
    2bf4:	6f 89       	ldd	r22, Y+23	; 0x17
    2bf6:	78 8d       	ldd	r23, Y+24	; 0x18
    2bf8:	ce 01       	movw	r24, r28
    2bfa:	01 96       	adiw	r24, 0x01	; 1
    2bfc:	0e 94 22 16 	call	0x2c44	; 0x2c44 <vfprintf>
    2c00:	ef 81       	ldd	r30, Y+7	; 0x07
    2c02:	f8 85       	ldd	r31, Y+8	; 0x08
    2c04:	e0 0f       	add	r30, r16
    2c06:	f1 1f       	adc	r31, r17
    2c08:	10 82       	st	Z, r1
    2c0a:	2e 96       	adiw	r28, 0x0e	; 14
    2c0c:	e4 e0       	ldi	r30, 0x04	; 4
    2c0e:	0c 94 42 1c 	jmp	0x3884	; 0x3884 <__epilogue_restores__+0x1c>

00002c12 <sscanf>:
    2c12:	ae e0       	ldi	r26, 0x0E	; 14
    2c14:	b0 e0       	ldi	r27, 0x00	; 0
    2c16:	ef e0       	ldi	r30, 0x0F	; 15
    2c18:	f6 e1       	ldi	r31, 0x16	; 22
    2c1a:	0c 94 28 1c 	jmp	0x3850	; 0x3850 <__prologue_saves__+0x20>
    2c1e:	85 e0       	ldi	r24, 0x05	; 5
    2c20:	8c 83       	std	Y+4, r24	; 0x04
    2c22:	8b 89       	ldd	r24, Y+19	; 0x13
    2c24:	9c 89       	ldd	r25, Y+20	; 0x14
    2c26:	9a 83       	std	Y+2, r25	; 0x02
    2c28:	89 83       	std	Y+1, r24	; 0x01
    2c2a:	ae 01       	movw	r20, r28
    2c2c:	49 5e       	subi	r20, 0xE9	; 233
    2c2e:	5f 4f       	sbci	r21, 0xFF	; 255
    2c30:	6d 89       	ldd	r22, Y+21	; 0x15
    2c32:	7e 89       	ldd	r23, Y+22	; 0x16
    2c34:	ce 01       	movw	r24, r28
    2c36:	01 96       	adiw	r24, 0x01	; 1
    2c38:	0e 94 9f 19 	call	0x333e	; 0x333e <vfscanf>
    2c3c:	2e 96       	adiw	r28, 0x0e	; 14
    2c3e:	e2 e0       	ldi	r30, 0x02	; 2
    2c40:	0c 94 44 1c 	jmp	0x3888	; 0x3888 <__epilogue_restores__+0x20>

00002c44 <vfprintf>:
    2c44:	ab e0       	ldi	r26, 0x0B	; 11
    2c46:	b0 e0       	ldi	r27, 0x00	; 0
    2c48:	e8 e2       	ldi	r30, 0x28	; 40
    2c4a:	f6 e1       	ldi	r31, 0x16	; 22
    2c4c:	0c 94 18 1c 	jmp	0x3830	; 0x3830 <__prologue_saves__>
    2c50:	6c 01       	movw	r12, r24
    2c52:	7b 01       	movw	r14, r22
    2c54:	8a 01       	movw	r16, r20
    2c56:	fc 01       	movw	r30, r24
    2c58:	17 82       	std	Z+7, r1	; 0x07
    2c5a:	16 82       	std	Z+6, r1	; 0x06
    2c5c:	83 81       	ldd	r24, Z+3	; 0x03
    2c5e:	81 ff       	sbrs	r24, 1
    2c60:	cc c1       	rjmp	.+920    	; 0x2ffa <vfprintf+0x3b6>
    2c62:	ce 01       	movw	r24, r28
    2c64:	01 96       	adiw	r24, 0x01	; 1
    2c66:	3c 01       	movw	r6, r24
    2c68:	f6 01       	movw	r30, r12
    2c6a:	93 81       	ldd	r25, Z+3	; 0x03
    2c6c:	f7 01       	movw	r30, r14
    2c6e:	93 fd       	sbrc	r25, 3
    2c70:	85 91       	lpm	r24, Z+
    2c72:	93 ff       	sbrs	r25, 3
    2c74:	81 91       	ld	r24, Z+
    2c76:	7f 01       	movw	r14, r30
    2c78:	88 23       	and	r24, r24
    2c7a:	09 f4       	brne	.+2      	; 0x2c7e <vfprintf+0x3a>
    2c7c:	ba c1       	rjmp	.+884    	; 0x2ff2 <vfprintf+0x3ae>
    2c7e:	85 32       	cpi	r24, 0x25	; 37
    2c80:	39 f4       	brne	.+14     	; 0x2c90 <vfprintf+0x4c>
    2c82:	93 fd       	sbrc	r25, 3
    2c84:	85 91       	lpm	r24, Z+
    2c86:	93 ff       	sbrs	r25, 3
    2c88:	81 91       	ld	r24, Z+
    2c8a:	7f 01       	movw	r14, r30
    2c8c:	85 32       	cpi	r24, 0x25	; 37
    2c8e:	29 f4       	brne	.+10     	; 0x2c9a <vfprintf+0x56>
    2c90:	b6 01       	movw	r22, r12
    2c92:	90 e0       	ldi	r25, 0x00	; 0
    2c94:	0e 94 18 1b 	call	0x3630	; 0x3630 <fputc>
    2c98:	e7 cf       	rjmp	.-50     	; 0x2c68 <vfprintf+0x24>
    2c9a:	91 2c       	mov	r9, r1
    2c9c:	21 2c       	mov	r2, r1
    2c9e:	31 2c       	mov	r3, r1
    2ca0:	ff e1       	ldi	r31, 0x1F	; 31
    2ca2:	f3 15       	cp	r31, r3
    2ca4:	d8 f0       	brcs	.+54     	; 0x2cdc <vfprintf+0x98>
    2ca6:	8b 32       	cpi	r24, 0x2B	; 43
    2ca8:	79 f0       	breq	.+30     	; 0x2cc8 <vfprintf+0x84>
    2caa:	38 f4       	brcc	.+14     	; 0x2cba <vfprintf+0x76>
    2cac:	80 32       	cpi	r24, 0x20	; 32
    2cae:	79 f0       	breq	.+30     	; 0x2cce <vfprintf+0x8a>
    2cb0:	83 32       	cpi	r24, 0x23	; 35
    2cb2:	a1 f4       	brne	.+40     	; 0x2cdc <vfprintf+0x98>
    2cb4:	23 2d       	mov	r18, r3
    2cb6:	20 61       	ori	r18, 0x10	; 16
    2cb8:	1d c0       	rjmp	.+58     	; 0x2cf4 <vfprintf+0xb0>
    2cba:	8d 32       	cpi	r24, 0x2D	; 45
    2cbc:	61 f0       	breq	.+24     	; 0x2cd6 <vfprintf+0x92>
    2cbe:	80 33       	cpi	r24, 0x30	; 48
    2cc0:	69 f4       	brne	.+26     	; 0x2cdc <vfprintf+0x98>
    2cc2:	23 2d       	mov	r18, r3
    2cc4:	21 60       	ori	r18, 0x01	; 1
    2cc6:	16 c0       	rjmp	.+44     	; 0x2cf4 <vfprintf+0xb0>
    2cc8:	83 2d       	mov	r24, r3
    2cca:	82 60       	ori	r24, 0x02	; 2
    2ccc:	38 2e       	mov	r3, r24
    2cce:	e3 2d       	mov	r30, r3
    2cd0:	e4 60       	ori	r30, 0x04	; 4
    2cd2:	3e 2e       	mov	r3, r30
    2cd4:	2a c0       	rjmp	.+84     	; 0x2d2a <vfprintf+0xe6>
    2cd6:	f3 2d       	mov	r31, r3
    2cd8:	f8 60       	ori	r31, 0x08	; 8
    2cda:	1d c0       	rjmp	.+58     	; 0x2d16 <vfprintf+0xd2>
    2cdc:	37 fc       	sbrc	r3, 7
    2cde:	2d c0       	rjmp	.+90     	; 0x2d3a <vfprintf+0xf6>
    2ce0:	20 ed       	ldi	r18, 0xD0	; 208
    2ce2:	28 0f       	add	r18, r24
    2ce4:	2a 30       	cpi	r18, 0x0A	; 10
    2ce6:	40 f0       	brcs	.+16     	; 0x2cf8 <vfprintf+0xb4>
    2ce8:	8e 32       	cpi	r24, 0x2E	; 46
    2cea:	b9 f4       	brne	.+46     	; 0x2d1a <vfprintf+0xd6>
    2cec:	36 fc       	sbrc	r3, 6
    2cee:	81 c1       	rjmp	.+770    	; 0x2ff2 <vfprintf+0x3ae>
    2cf0:	23 2d       	mov	r18, r3
    2cf2:	20 64       	ori	r18, 0x40	; 64
    2cf4:	32 2e       	mov	r3, r18
    2cf6:	19 c0       	rjmp	.+50     	; 0x2d2a <vfprintf+0xe6>
    2cf8:	36 fe       	sbrs	r3, 6
    2cfa:	06 c0       	rjmp	.+12     	; 0x2d08 <vfprintf+0xc4>
    2cfc:	8a e0       	ldi	r24, 0x0A	; 10
    2cfe:	98 9e       	mul	r9, r24
    2d00:	20 0d       	add	r18, r0
    2d02:	11 24       	eor	r1, r1
    2d04:	92 2e       	mov	r9, r18
    2d06:	11 c0       	rjmp	.+34     	; 0x2d2a <vfprintf+0xe6>
    2d08:	ea e0       	ldi	r30, 0x0A	; 10
    2d0a:	2e 9e       	mul	r2, r30
    2d0c:	20 0d       	add	r18, r0
    2d0e:	11 24       	eor	r1, r1
    2d10:	22 2e       	mov	r2, r18
    2d12:	f3 2d       	mov	r31, r3
    2d14:	f0 62       	ori	r31, 0x20	; 32
    2d16:	3f 2e       	mov	r3, r31
    2d18:	08 c0       	rjmp	.+16     	; 0x2d2a <vfprintf+0xe6>
    2d1a:	8c 36       	cpi	r24, 0x6C	; 108
    2d1c:	21 f4       	brne	.+8      	; 0x2d26 <vfprintf+0xe2>
    2d1e:	83 2d       	mov	r24, r3
    2d20:	80 68       	ori	r24, 0x80	; 128
    2d22:	38 2e       	mov	r3, r24
    2d24:	02 c0       	rjmp	.+4      	; 0x2d2a <vfprintf+0xe6>
    2d26:	88 36       	cpi	r24, 0x68	; 104
    2d28:	41 f4       	brne	.+16     	; 0x2d3a <vfprintf+0xf6>
    2d2a:	f7 01       	movw	r30, r14
    2d2c:	93 fd       	sbrc	r25, 3
    2d2e:	85 91       	lpm	r24, Z+
    2d30:	93 ff       	sbrs	r25, 3
    2d32:	81 91       	ld	r24, Z+
    2d34:	7f 01       	movw	r14, r30
    2d36:	81 11       	cpse	r24, r1
    2d38:	b3 cf       	rjmp	.-154    	; 0x2ca0 <vfprintf+0x5c>
    2d3a:	98 2f       	mov	r25, r24
    2d3c:	9f 7d       	andi	r25, 0xDF	; 223
    2d3e:	95 54       	subi	r25, 0x45	; 69
    2d40:	93 30       	cpi	r25, 0x03	; 3
    2d42:	28 f4       	brcc	.+10     	; 0x2d4e <vfprintf+0x10a>
    2d44:	0c 5f       	subi	r16, 0xFC	; 252
    2d46:	1f 4f       	sbci	r17, 0xFF	; 255
    2d48:	9f e3       	ldi	r25, 0x3F	; 63
    2d4a:	99 83       	std	Y+1, r25	; 0x01
    2d4c:	0d c0       	rjmp	.+26     	; 0x2d68 <vfprintf+0x124>
    2d4e:	83 36       	cpi	r24, 0x63	; 99
    2d50:	31 f0       	breq	.+12     	; 0x2d5e <vfprintf+0x11a>
    2d52:	83 37       	cpi	r24, 0x73	; 115
    2d54:	71 f0       	breq	.+28     	; 0x2d72 <vfprintf+0x12e>
    2d56:	83 35       	cpi	r24, 0x53	; 83
    2d58:	09 f0       	breq	.+2      	; 0x2d5c <vfprintf+0x118>
    2d5a:	59 c0       	rjmp	.+178    	; 0x2e0e <vfprintf+0x1ca>
    2d5c:	21 c0       	rjmp	.+66     	; 0x2da0 <vfprintf+0x15c>
    2d5e:	f8 01       	movw	r30, r16
    2d60:	80 81       	ld	r24, Z
    2d62:	89 83       	std	Y+1, r24	; 0x01
    2d64:	0e 5f       	subi	r16, 0xFE	; 254
    2d66:	1f 4f       	sbci	r17, 0xFF	; 255
    2d68:	88 24       	eor	r8, r8
    2d6a:	83 94       	inc	r8
    2d6c:	91 2c       	mov	r9, r1
    2d6e:	53 01       	movw	r10, r6
    2d70:	13 c0       	rjmp	.+38     	; 0x2d98 <vfprintf+0x154>
    2d72:	28 01       	movw	r4, r16
    2d74:	f2 e0       	ldi	r31, 0x02	; 2
    2d76:	4f 0e       	add	r4, r31
    2d78:	51 1c       	adc	r5, r1
    2d7a:	f8 01       	movw	r30, r16
    2d7c:	a0 80       	ld	r10, Z
    2d7e:	b1 80       	ldd	r11, Z+1	; 0x01
    2d80:	36 fe       	sbrs	r3, 6
    2d82:	03 c0       	rjmp	.+6      	; 0x2d8a <vfprintf+0x146>
    2d84:	69 2d       	mov	r22, r9
    2d86:	70 e0       	ldi	r23, 0x00	; 0
    2d88:	02 c0       	rjmp	.+4      	; 0x2d8e <vfprintf+0x14a>
    2d8a:	6f ef       	ldi	r22, 0xFF	; 255
    2d8c:	7f ef       	ldi	r23, 0xFF	; 255
    2d8e:	c5 01       	movw	r24, r10
    2d90:	0e 94 cf 1a 	call	0x359e	; 0x359e <strnlen>
    2d94:	4c 01       	movw	r8, r24
    2d96:	82 01       	movw	r16, r4
    2d98:	f3 2d       	mov	r31, r3
    2d9a:	ff 77       	andi	r31, 0x7F	; 127
    2d9c:	3f 2e       	mov	r3, r31
    2d9e:	16 c0       	rjmp	.+44     	; 0x2dcc <vfprintf+0x188>
    2da0:	28 01       	movw	r4, r16
    2da2:	22 e0       	ldi	r18, 0x02	; 2
    2da4:	42 0e       	add	r4, r18
    2da6:	51 1c       	adc	r5, r1
    2da8:	f8 01       	movw	r30, r16
    2daa:	a0 80       	ld	r10, Z
    2dac:	b1 80       	ldd	r11, Z+1	; 0x01
    2dae:	36 fe       	sbrs	r3, 6
    2db0:	03 c0       	rjmp	.+6      	; 0x2db8 <vfprintf+0x174>
    2db2:	69 2d       	mov	r22, r9
    2db4:	70 e0       	ldi	r23, 0x00	; 0
    2db6:	02 c0       	rjmp	.+4      	; 0x2dbc <vfprintf+0x178>
    2db8:	6f ef       	ldi	r22, 0xFF	; 255
    2dba:	7f ef       	ldi	r23, 0xFF	; 255
    2dbc:	c5 01       	movw	r24, r10
    2dbe:	0e 94 c4 1a 	call	0x3588	; 0x3588 <strnlen_P>
    2dc2:	4c 01       	movw	r8, r24
    2dc4:	f3 2d       	mov	r31, r3
    2dc6:	f0 68       	ori	r31, 0x80	; 128
    2dc8:	3f 2e       	mov	r3, r31
    2dca:	82 01       	movw	r16, r4
    2dcc:	33 fc       	sbrc	r3, 3
    2dce:	1b c0       	rjmp	.+54     	; 0x2e06 <vfprintf+0x1c2>
    2dd0:	82 2d       	mov	r24, r2
    2dd2:	90 e0       	ldi	r25, 0x00	; 0
    2dd4:	88 16       	cp	r8, r24
    2dd6:	99 06       	cpc	r9, r25
    2dd8:	b0 f4       	brcc	.+44     	; 0x2e06 <vfprintf+0x1c2>
    2dda:	b6 01       	movw	r22, r12
    2ddc:	80 e2       	ldi	r24, 0x20	; 32
    2dde:	90 e0       	ldi	r25, 0x00	; 0
    2de0:	0e 94 18 1b 	call	0x3630	; 0x3630 <fputc>
    2de4:	2a 94       	dec	r2
    2de6:	f4 cf       	rjmp	.-24     	; 0x2dd0 <vfprintf+0x18c>
    2de8:	f5 01       	movw	r30, r10
    2dea:	37 fc       	sbrc	r3, 7
    2dec:	85 91       	lpm	r24, Z+
    2dee:	37 fe       	sbrs	r3, 7
    2df0:	81 91       	ld	r24, Z+
    2df2:	5f 01       	movw	r10, r30
    2df4:	b6 01       	movw	r22, r12
    2df6:	90 e0       	ldi	r25, 0x00	; 0
    2df8:	0e 94 18 1b 	call	0x3630	; 0x3630 <fputc>
    2dfc:	21 10       	cpse	r2, r1
    2dfe:	2a 94       	dec	r2
    2e00:	21 e0       	ldi	r18, 0x01	; 1
    2e02:	82 1a       	sub	r8, r18
    2e04:	91 08       	sbc	r9, r1
    2e06:	81 14       	cp	r8, r1
    2e08:	91 04       	cpc	r9, r1
    2e0a:	71 f7       	brne	.-36     	; 0x2de8 <vfprintf+0x1a4>
    2e0c:	e8 c0       	rjmp	.+464    	; 0x2fde <vfprintf+0x39a>
    2e0e:	84 36       	cpi	r24, 0x64	; 100
    2e10:	11 f0       	breq	.+4      	; 0x2e16 <vfprintf+0x1d2>
    2e12:	89 36       	cpi	r24, 0x69	; 105
    2e14:	41 f5       	brne	.+80     	; 0x2e66 <vfprintf+0x222>
    2e16:	f8 01       	movw	r30, r16
    2e18:	37 fe       	sbrs	r3, 7
    2e1a:	07 c0       	rjmp	.+14     	; 0x2e2a <vfprintf+0x1e6>
    2e1c:	60 81       	ld	r22, Z
    2e1e:	71 81       	ldd	r23, Z+1	; 0x01
    2e20:	82 81       	ldd	r24, Z+2	; 0x02
    2e22:	93 81       	ldd	r25, Z+3	; 0x03
    2e24:	0c 5f       	subi	r16, 0xFC	; 252
    2e26:	1f 4f       	sbci	r17, 0xFF	; 255
    2e28:	08 c0       	rjmp	.+16     	; 0x2e3a <vfprintf+0x1f6>
    2e2a:	60 81       	ld	r22, Z
    2e2c:	71 81       	ldd	r23, Z+1	; 0x01
    2e2e:	07 2e       	mov	r0, r23
    2e30:	00 0c       	add	r0, r0
    2e32:	88 0b       	sbc	r24, r24
    2e34:	99 0b       	sbc	r25, r25
    2e36:	0e 5f       	subi	r16, 0xFE	; 254
    2e38:	1f 4f       	sbci	r17, 0xFF	; 255
    2e3a:	f3 2d       	mov	r31, r3
    2e3c:	ff 76       	andi	r31, 0x6F	; 111
    2e3e:	3f 2e       	mov	r3, r31
    2e40:	97 ff       	sbrs	r25, 7
    2e42:	09 c0       	rjmp	.+18     	; 0x2e56 <vfprintf+0x212>
    2e44:	90 95       	com	r25
    2e46:	80 95       	com	r24
    2e48:	70 95       	com	r23
    2e4a:	61 95       	neg	r22
    2e4c:	7f 4f       	sbci	r23, 0xFF	; 255
    2e4e:	8f 4f       	sbci	r24, 0xFF	; 255
    2e50:	9f 4f       	sbci	r25, 0xFF	; 255
    2e52:	f0 68       	ori	r31, 0x80	; 128
    2e54:	3f 2e       	mov	r3, r31
    2e56:	2a e0       	ldi	r18, 0x0A	; 10
    2e58:	30 e0       	ldi	r19, 0x00	; 0
    2e5a:	a3 01       	movw	r20, r6
    2e5c:	0e 94 6d 1b 	call	0x36da	; 0x36da <__ultoa_invert>
    2e60:	88 2e       	mov	r8, r24
    2e62:	86 18       	sub	r8, r6
    2e64:	45 c0       	rjmp	.+138    	; 0x2ef0 <vfprintf+0x2ac>
    2e66:	85 37       	cpi	r24, 0x75	; 117
    2e68:	31 f4       	brne	.+12     	; 0x2e76 <vfprintf+0x232>
    2e6a:	23 2d       	mov	r18, r3
    2e6c:	2f 7e       	andi	r18, 0xEF	; 239
    2e6e:	b2 2e       	mov	r11, r18
    2e70:	2a e0       	ldi	r18, 0x0A	; 10
    2e72:	30 e0       	ldi	r19, 0x00	; 0
    2e74:	25 c0       	rjmp	.+74     	; 0x2ec0 <vfprintf+0x27c>
    2e76:	93 2d       	mov	r25, r3
    2e78:	99 7f       	andi	r25, 0xF9	; 249
    2e7a:	b9 2e       	mov	r11, r25
    2e7c:	8f 36       	cpi	r24, 0x6F	; 111
    2e7e:	c1 f0       	breq	.+48     	; 0x2eb0 <vfprintf+0x26c>
    2e80:	18 f4       	brcc	.+6      	; 0x2e88 <vfprintf+0x244>
    2e82:	88 35       	cpi	r24, 0x58	; 88
    2e84:	79 f0       	breq	.+30     	; 0x2ea4 <vfprintf+0x260>
    2e86:	b5 c0       	rjmp	.+362    	; 0x2ff2 <vfprintf+0x3ae>
    2e88:	80 37       	cpi	r24, 0x70	; 112
    2e8a:	19 f0       	breq	.+6      	; 0x2e92 <vfprintf+0x24e>
    2e8c:	88 37       	cpi	r24, 0x78	; 120
    2e8e:	21 f0       	breq	.+8      	; 0x2e98 <vfprintf+0x254>
    2e90:	b0 c0       	rjmp	.+352    	; 0x2ff2 <vfprintf+0x3ae>
    2e92:	e9 2f       	mov	r30, r25
    2e94:	e0 61       	ori	r30, 0x10	; 16
    2e96:	be 2e       	mov	r11, r30
    2e98:	b4 fe       	sbrs	r11, 4
    2e9a:	0d c0       	rjmp	.+26     	; 0x2eb6 <vfprintf+0x272>
    2e9c:	fb 2d       	mov	r31, r11
    2e9e:	f4 60       	ori	r31, 0x04	; 4
    2ea0:	bf 2e       	mov	r11, r31
    2ea2:	09 c0       	rjmp	.+18     	; 0x2eb6 <vfprintf+0x272>
    2ea4:	34 fe       	sbrs	r3, 4
    2ea6:	0a c0       	rjmp	.+20     	; 0x2ebc <vfprintf+0x278>
    2ea8:	29 2f       	mov	r18, r25
    2eaa:	26 60       	ori	r18, 0x06	; 6
    2eac:	b2 2e       	mov	r11, r18
    2eae:	06 c0       	rjmp	.+12     	; 0x2ebc <vfprintf+0x278>
    2eb0:	28 e0       	ldi	r18, 0x08	; 8
    2eb2:	30 e0       	ldi	r19, 0x00	; 0
    2eb4:	05 c0       	rjmp	.+10     	; 0x2ec0 <vfprintf+0x27c>
    2eb6:	20 e1       	ldi	r18, 0x10	; 16
    2eb8:	30 e0       	ldi	r19, 0x00	; 0
    2eba:	02 c0       	rjmp	.+4      	; 0x2ec0 <vfprintf+0x27c>
    2ebc:	20 e1       	ldi	r18, 0x10	; 16
    2ebe:	32 e0       	ldi	r19, 0x02	; 2
    2ec0:	f8 01       	movw	r30, r16
    2ec2:	b7 fe       	sbrs	r11, 7
    2ec4:	07 c0       	rjmp	.+14     	; 0x2ed4 <vfprintf+0x290>
    2ec6:	60 81       	ld	r22, Z
    2ec8:	71 81       	ldd	r23, Z+1	; 0x01
    2eca:	82 81       	ldd	r24, Z+2	; 0x02
    2ecc:	93 81       	ldd	r25, Z+3	; 0x03
    2ece:	0c 5f       	subi	r16, 0xFC	; 252
    2ed0:	1f 4f       	sbci	r17, 0xFF	; 255
    2ed2:	06 c0       	rjmp	.+12     	; 0x2ee0 <vfprintf+0x29c>
    2ed4:	60 81       	ld	r22, Z
    2ed6:	71 81       	ldd	r23, Z+1	; 0x01
    2ed8:	80 e0       	ldi	r24, 0x00	; 0
    2eda:	90 e0       	ldi	r25, 0x00	; 0
    2edc:	0e 5f       	subi	r16, 0xFE	; 254
    2ede:	1f 4f       	sbci	r17, 0xFF	; 255
    2ee0:	a3 01       	movw	r20, r6
    2ee2:	0e 94 6d 1b 	call	0x36da	; 0x36da <__ultoa_invert>
    2ee6:	88 2e       	mov	r8, r24
    2ee8:	86 18       	sub	r8, r6
    2eea:	fb 2d       	mov	r31, r11
    2eec:	ff 77       	andi	r31, 0x7F	; 127
    2eee:	3f 2e       	mov	r3, r31
    2ef0:	36 fe       	sbrs	r3, 6
    2ef2:	0d c0       	rjmp	.+26     	; 0x2f0e <vfprintf+0x2ca>
    2ef4:	23 2d       	mov	r18, r3
    2ef6:	2e 7f       	andi	r18, 0xFE	; 254
    2ef8:	a2 2e       	mov	r10, r18
    2efa:	89 14       	cp	r8, r9
    2efc:	58 f4       	brcc	.+22     	; 0x2f14 <vfprintf+0x2d0>
    2efe:	34 fe       	sbrs	r3, 4
    2f00:	0b c0       	rjmp	.+22     	; 0x2f18 <vfprintf+0x2d4>
    2f02:	32 fc       	sbrc	r3, 2
    2f04:	09 c0       	rjmp	.+18     	; 0x2f18 <vfprintf+0x2d4>
    2f06:	83 2d       	mov	r24, r3
    2f08:	8e 7e       	andi	r24, 0xEE	; 238
    2f0a:	a8 2e       	mov	r10, r24
    2f0c:	05 c0       	rjmp	.+10     	; 0x2f18 <vfprintf+0x2d4>
    2f0e:	b8 2c       	mov	r11, r8
    2f10:	a3 2c       	mov	r10, r3
    2f12:	03 c0       	rjmp	.+6      	; 0x2f1a <vfprintf+0x2d6>
    2f14:	b8 2c       	mov	r11, r8
    2f16:	01 c0       	rjmp	.+2      	; 0x2f1a <vfprintf+0x2d6>
    2f18:	b9 2c       	mov	r11, r9
    2f1a:	a4 fe       	sbrs	r10, 4
    2f1c:	0f c0       	rjmp	.+30     	; 0x2f3c <vfprintf+0x2f8>
    2f1e:	fe 01       	movw	r30, r28
    2f20:	e8 0d       	add	r30, r8
    2f22:	f1 1d       	adc	r31, r1
    2f24:	80 81       	ld	r24, Z
    2f26:	80 33       	cpi	r24, 0x30	; 48
    2f28:	21 f4       	brne	.+8      	; 0x2f32 <vfprintf+0x2ee>
    2f2a:	9a 2d       	mov	r25, r10
    2f2c:	99 7e       	andi	r25, 0xE9	; 233
    2f2e:	a9 2e       	mov	r10, r25
    2f30:	09 c0       	rjmp	.+18     	; 0x2f44 <vfprintf+0x300>
    2f32:	a2 fe       	sbrs	r10, 2
    2f34:	06 c0       	rjmp	.+12     	; 0x2f42 <vfprintf+0x2fe>
    2f36:	b3 94       	inc	r11
    2f38:	b3 94       	inc	r11
    2f3a:	04 c0       	rjmp	.+8      	; 0x2f44 <vfprintf+0x300>
    2f3c:	8a 2d       	mov	r24, r10
    2f3e:	86 78       	andi	r24, 0x86	; 134
    2f40:	09 f0       	breq	.+2      	; 0x2f44 <vfprintf+0x300>
    2f42:	b3 94       	inc	r11
    2f44:	a3 fc       	sbrc	r10, 3
    2f46:	11 c0       	rjmp	.+34     	; 0x2f6a <vfprintf+0x326>
    2f48:	a0 fe       	sbrs	r10, 0
    2f4a:	06 c0       	rjmp	.+12     	; 0x2f58 <vfprintf+0x314>
    2f4c:	b2 14       	cp	r11, r2
    2f4e:	88 f4       	brcc	.+34     	; 0x2f72 <vfprintf+0x32e>
    2f50:	28 0c       	add	r2, r8
    2f52:	92 2c       	mov	r9, r2
    2f54:	9b 18       	sub	r9, r11
    2f56:	0e c0       	rjmp	.+28     	; 0x2f74 <vfprintf+0x330>
    2f58:	b2 14       	cp	r11, r2
    2f5a:	60 f4       	brcc	.+24     	; 0x2f74 <vfprintf+0x330>
    2f5c:	b6 01       	movw	r22, r12
    2f5e:	80 e2       	ldi	r24, 0x20	; 32
    2f60:	90 e0       	ldi	r25, 0x00	; 0
    2f62:	0e 94 18 1b 	call	0x3630	; 0x3630 <fputc>
    2f66:	b3 94       	inc	r11
    2f68:	f7 cf       	rjmp	.-18     	; 0x2f58 <vfprintf+0x314>
    2f6a:	b2 14       	cp	r11, r2
    2f6c:	18 f4       	brcc	.+6      	; 0x2f74 <vfprintf+0x330>
    2f6e:	2b 18       	sub	r2, r11
    2f70:	02 c0       	rjmp	.+4      	; 0x2f76 <vfprintf+0x332>
    2f72:	98 2c       	mov	r9, r8
    2f74:	21 2c       	mov	r2, r1
    2f76:	a4 fe       	sbrs	r10, 4
    2f78:	10 c0       	rjmp	.+32     	; 0x2f9a <vfprintf+0x356>
    2f7a:	b6 01       	movw	r22, r12
    2f7c:	80 e3       	ldi	r24, 0x30	; 48
    2f7e:	90 e0       	ldi	r25, 0x00	; 0
    2f80:	0e 94 18 1b 	call	0x3630	; 0x3630 <fputc>
    2f84:	a2 fe       	sbrs	r10, 2
    2f86:	17 c0       	rjmp	.+46     	; 0x2fb6 <vfprintf+0x372>
    2f88:	a1 fc       	sbrc	r10, 1
    2f8a:	03 c0       	rjmp	.+6      	; 0x2f92 <vfprintf+0x34e>
    2f8c:	88 e7       	ldi	r24, 0x78	; 120
    2f8e:	90 e0       	ldi	r25, 0x00	; 0
    2f90:	02 c0       	rjmp	.+4      	; 0x2f96 <vfprintf+0x352>
    2f92:	88 e5       	ldi	r24, 0x58	; 88
    2f94:	90 e0       	ldi	r25, 0x00	; 0
    2f96:	b6 01       	movw	r22, r12
    2f98:	0c c0       	rjmp	.+24     	; 0x2fb2 <vfprintf+0x36e>
    2f9a:	8a 2d       	mov	r24, r10
    2f9c:	86 78       	andi	r24, 0x86	; 134
    2f9e:	59 f0       	breq	.+22     	; 0x2fb6 <vfprintf+0x372>
    2fa0:	a1 fe       	sbrs	r10, 1
    2fa2:	02 c0       	rjmp	.+4      	; 0x2fa8 <vfprintf+0x364>
    2fa4:	8b e2       	ldi	r24, 0x2B	; 43
    2fa6:	01 c0       	rjmp	.+2      	; 0x2faa <vfprintf+0x366>
    2fa8:	80 e2       	ldi	r24, 0x20	; 32
    2faa:	a7 fc       	sbrc	r10, 7
    2fac:	8d e2       	ldi	r24, 0x2D	; 45
    2fae:	b6 01       	movw	r22, r12
    2fb0:	90 e0       	ldi	r25, 0x00	; 0
    2fb2:	0e 94 18 1b 	call	0x3630	; 0x3630 <fputc>
    2fb6:	89 14       	cp	r8, r9
    2fb8:	38 f4       	brcc	.+14     	; 0x2fc8 <vfprintf+0x384>
    2fba:	b6 01       	movw	r22, r12
    2fbc:	80 e3       	ldi	r24, 0x30	; 48
    2fbe:	90 e0       	ldi	r25, 0x00	; 0
    2fc0:	0e 94 18 1b 	call	0x3630	; 0x3630 <fputc>
    2fc4:	9a 94       	dec	r9
    2fc6:	f7 cf       	rjmp	.-18     	; 0x2fb6 <vfprintf+0x372>
    2fc8:	8a 94       	dec	r8
    2fca:	f3 01       	movw	r30, r6
    2fcc:	e8 0d       	add	r30, r8
    2fce:	f1 1d       	adc	r31, r1
    2fd0:	80 81       	ld	r24, Z
    2fd2:	b6 01       	movw	r22, r12
    2fd4:	90 e0       	ldi	r25, 0x00	; 0
    2fd6:	0e 94 18 1b 	call	0x3630	; 0x3630 <fputc>
    2fda:	81 10       	cpse	r8, r1
    2fdc:	f5 cf       	rjmp	.-22     	; 0x2fc8 <vfprintf+0x384>
    2fde:	22 20       	and	r2, r2
    2fe0:	09 f4       	brne	.+2      	; 0x2fe4 <vfprintf+0x3a0>
    2fe2:	42 ce       	rjmp	.-892    	; 0x2c68 <vfprintf+0x24>
    2fe4:	b6 01       	movw	r22, r12
    2fe6:	80 e2       	ldi	r24, 0x20	; 32
    2fe8:	90 e0       	ldi	r25, 0x00	; 0
    2fea:	0e 94 18 1b 	call	0x3630	; 0x3630 <fputc>
    2fee:	2a 94       	dec	r2
    2ff0:	f6 cf       	rjmp	.-20     	; 0x2fde <vfprintf+0x39a>
    2ff2:	f6 01       	movw	r30, r12
    2ff4:	86 81       	ldd	r24, Z+6	; 0x06
    2ff6:	97 81       	ldd	r25, Z+7	; 0x07
    2ff8:	02 c0       	rjmp	.+4      	; 0x2ffe <vfprintf+0x3ba>
    2ffa:	8f ef       	ldi	r24, 0xFF	; 255
    2ffc:	9f ef       	ldi	r25, 0xFF	; 255
    2ffe:	2b 96       	adiw	r28, 0x0b	; 11
    3000:	e2 e1       	ldi	r30, 0x12	; 18
    3002:	0c 94 34 1c 	jmp	0x3868	; 0x3868 <__epilogue_restores__>

00003006 <putval>:
    3006:	20 fd       	sbrc	r18, 0
    3008:	09 c0       	rjmp	.+18     	; 0x301c <putval+0x16>
    300a:	fc 01       	movw	r30, r24
    300c:	23 fd       	sbrc	r18, 3
    300e:	05 c0       	rjmp	.+10     	; 0x301a <putval+0x14>
    3010:	22 ff       	sbrs	r18, 2
    3012:	02 c0       	rjmp	.+4      	; 0x3018 <putval+0x12>
    3014:	73 83       	std	Z+3, r23	; 0x03
    3016:	62 83       	std	Z+2, r22	; 0x02
    3018:	51 83       	std	Z+1, r21	; 0x01
    301a:	40 83       	st	Z, r20
    301c:	08 95       	ret

0000301e <mulacc>:
    301e:	44 fd       	sbrc	r20, 4
    3020:	17 c0       	rjmp	.+46     	; 0x3050 <mulacc+0x32>
    3022:	46 fd       	sbrc	r20, 6
    3024:	17 c0       	rjmp	.+46     	; 0x3054 <mulacc+0x36>
    3026:	ab 01       	movw	r20, r22
    3028:	bc 01       	movw	r22, r24
    302a:	da 01       	movw	r26, r20
    302c:	fb 01       	movw	r30, r22
    302e:	aa 0f       	add	r26, r26
    3030:	bb 1f       	adc	r27, r27
    3032:	ee 1f       	adc	r30, r30
    3034:	ff 1f       	adc	r31, r31
    3036:	10 94       	com	r1
    3038:	d1 f7       	brne	.-12     	; 0x302e <mulacc+0x10>
    303a:	4a 0f       	add	r20, r26
    303c:	5b 1f       	adc	r21, r27
    303e:	6e 1f       	adc	r22, r30
    3040:	7f 1f       	adc	r23, r31
    3042:	cb 01       	movw	r24, r22
    3044:	ba 01       	movw	r22, r20
    3046:	66 0f       	add	r22, r22
    3048:	77 1f       	adc	r23, r23
    304a:	88 1f       	adc	r24, r24
    304c:	99 1f       	adc	r25, r25
    304e:	09 c0       	rjmp	.+18     	; 0x3062 <mulacc+0x44>
    3050:	33 e0       	ldi	r19, 0x03	; 3
    3052:	01 c0       	rjmp	.+2      	; 0x3056 <mulacc+0x38>
    3054:	34 e0       	ldi	r19, 0x04	; 4
    3056:	66 0f       	add	r22, r22
    3058:	77 1f       	adc	r23, r23
    305a:	88 1f       	adc	r24, r24
    305c:	99 1f       	adc	r25, r25
    305e:	31 50       	subi	r19, 0x01	; 1
    3060:	d1 f7       	brne	.-12     	; 0x3056 <mulacc+0x38>
    3062:	62 0f       	add	r22, r18
    3064:	71 1d       	adc	r23, r1
    3066:	81 1d       	adc	r24, r1
    3068:	91 1d       	adc	r25, r1
    306a:	08 95       	ret

0000306c <skip_spaces>:
    306c:	0f 93       	push	r16
    306e:	1f 93       	push	r17
    3070:	cf 93       	push	r28
    3072:	df 93       	push	r29
    3074:	8c 01       	movw	r16, r24
    3076:	c8 01       	movw	r24, r16
    3078:	0e 94 da 1a 	call	0x35b4	; 0x35b4 <fgetc>
    307c:	ec 01       	movw	r28, r24
    307e:	97 fd       	sbrc	r25, 7
    3080:	08 c0       	rjmp	.+16     	; 0x3092 <skip_spaces+0x26>
    3082:	0e 94 b0 1a 	call	0x3560	; 0x3560 <isspace>
    3086:	89 2b       	or	r24, r25
    3088:	b1 f7       	brne	.-20     	; 0x3076 <skip_spaces+0xa>
    308a:	b8 01       	movw	r22, r16
    308c:	ce 01       	movw	r24, r28
    308e:	0e 94 54 1b 	call	0x36a8	; 0x36a8 <ungetc>
    3092:	ce 01       	movw	r24, r28
    3094:	df 91       	pop	r29
    3096:	cf 91       	pop	r28
    3098:	1f 91       	pop	r17
    309a:	0f 91       	pop	r16
    309c:	08 95       	ret

0000309e <conv_int>:
    309e:	8f 92       	push	r8
    30a0:	9f 92       	push	r9
    30a2:	af 92       	push	r10
    30a4:	bf 92       	push	r11
    30a6:	ef 92       	push	r14
    30a8:	ff 92       	push	r15
    30aa:	0f 93       	push	r16
    30ac:	1f 93       	push	r17
    30ae:	cf 93       	push	r28
    30b0:	df 93       	push	r29
    30b2:	8c 01       	movw	r16, r24
    30b4:	d6 2f       	mov	r29, r22
    30b6:	7a 01       	movw	r14, r20
    30b8:	b2 2e       	mov	r11, r18
    30ba:	0e 94 da 1a 	call	0x35b4	; 0x35b4 <fgetc>
    30be:	9c 01       	movw	r18, r24
    30c0:	33 27       	eor	r19, r19
    30c2:	2b 32       	cpi	r18, 0x2B	; 43
    30c4:	31 05       	cpc	r19, r1
    30c6:	31 f0       	breq	.+12     	; 0x30d4 <conv_int+0x36>
    30c8:	2d 32       	cpi	r18, 0x2D	; 45
    30ca:	31 05       	cpc	r19, r1
    30cc:	61 f4       	brne	.+24     	; 0x30e6 <conv_int+0x48>
    30ce:	8b 2d       	mov	r24, r11
    30d0:	80 68       	ori	r24, 0x80	; 128
    30d2:	b8 2e       	mov	r11, r24
    30d4:	d1 50       	subi	r29, 0x01	; 1
    30d6:	11 f4       	brne	.+4      	; 0x30dc <conv_int+0x3e>
    30d8:	80 e0       	ldi	r24, 0x00	; 0
    30da:	68 c0       	rjmp	.+208    	; 0x31ac <conv_int+0x10e>
    30dc:	c8 01       	movw	r24, r16
    30de:	0e 94 da 1a 	call	0x35b4	; 0x35b4 <fgetc>
    30e2:	97 fd       	sbrc	r25, 7
    30e4:	f9 cf       	rjmp	.-14     	; 0x30d8 <conv_int+0x3a>
    30e6:	cb 2d       	mov	r28, r11
    30e8:	cd 7f       	andi	r28, 0xFD	; 253
    30ea:	2b 2d       	mov	r18, r11
    30ec:	20 73       	andi	r18, 0x30	; 48
    30ee:	09 f5       	brne	.+66     	; 0x3132 <conv_int+0x94>
    30f0:	80 33       	cpi	r24, 0x30	; 48
    30f2:	f9 f4       	brne	.+62     	; 0x3132 <conv_int+0x94>
    30f4:	aa 24       	eor	r10, r10
    30f6:	aa 94       	dec	r10
    30f8:	ad 0e       	add	r10, r29
    30fa:	09 f4       	brne	.+2      	; 0x30fe <conv_int+0x60>
    30fc:	43 c0       	rjmp	.+134    	; 0x3184 <conv_int+0xe6>
    30fe:	c8 01       	movw	r24, r16
    3100:	0e 94 da 1a 	call	0x35b4	; 0x35b4 <fgetc>
    3104:	97 fd       	sbrc	r25, 7
    3106:	3e c0       	rjmp	.+124    	; 0x3184 <conv_int+0xe6>
    3108:	9c 01       	movw	r18, r24
    310a:	2f 7d       	andi	r18, 0xDF	; 223
    310c:	33 27       	eor	r19, r19
    310e:	28 35       	cpi	r18, 0x58	; 88
    3110:	31 05       	cpc	r19, r1
    3112:	49 f4       	brne	.+18     	; 0x3126 <conv_int+0x88>
    3114:	c2 64       	ori	r28, 0x42	; 66
    3116:	d2 50       	subi	r29, 0x02	; 2
    3118:	a9 f1       	breq	.+106    	; 0x3184 <conv_int+0xe6>
    311a:	c8 01       	movw	r24, r16
    311c:	0e 94 da 1a 	call	0x35b4	; 0x35b4 <fgetc>
    3120:	97 ff       	sbrs	r25, 7
    3122:	07 c0       	rjmp	.+14     	; 0x3132 <conv_int+0x94>
    3124:	2f c0       	rjmp	.+94     	; 0x3184 <conv_int+0xe6>
    3126:	b6 fe       	sbrs	r11, 6
    3128:	02 c0       	rjmp	.+4      	; 0x312e <conv_int+0x90>
    312a:	c2 60       	ori	r28, 0x02	; 2
    312c:	01 c0       	rjmp	.+2      	; 0x3130 <conv_int+0x92>
    312e:	c2 61       	ori	r28, 0x12	; 18
    3130:	da 2d       	mov	r29, r10
    3132:	81 2c       	mov	r8, r1
    3134:	91 2c       	mov	r9, r1
    3136:	54 01       	movw	r10, r8
    3138:	20 ed       	ldi	r18, 0xD0	; 208
    313a:	28 0f       	add	r18, r24
    313c:	28 30       	cpi	r18, 0x08	; 8
    313e:	80 f0       	brcs	.+32     	; 0x3160 <conv_int+0xc2>
    3140:	c4 ff       	sbrs	r28, 4
    3142:	04 c0       	rjmp	.+8      	; 0x314c <conv_int+0xae>
    3144:	b8 01       	movw	r22, r16
    3146:	0e 94 54 1b 	call	0x36a8	; 0x36a8 <ungetc>
    314a:	19 c0       	rjmp	.+50     	; 0x317e <conv_int+0xe0>
    314c:	2a 30       	cpi	r18, 0x0A	; 10
    314e:	40 f0       	brcs	.+16     	; 0x3160 <conv_int+0xc2>
    3150:	c6 ff       	sbrs	r28, 6
    3152:	f8 cf       	rjmp	.-16     	; 0x3144 <conv_int+0xa6>
    3154:	2f 7d       	andi	r18, 0xDF	; 223
    3156:	3f ee       	ldi	r19, 0xEF	; 239
    3158:	32 0f       	add	r19, r18
    315a:	36 30       	cpi	r19, 0x06	; 6
    315c:	98 f7       	brcc	.-26     	; 0x3144 <conv_int+0xa6>
    315e:	27 50       	subi	r18, 0x07	; 7
    3160:	4c 2f       	mov	r20, r28
    3162:	c5 01       	movw	r24, r10
    3164:	b4 01       	movw	r22, r8
    3166:	0e 94 0f 18 	call	0x301e	; 0x301e <mulacc>
    316a:	4b 01       	movw	r8, r22
    316c:	5c 01       	movw	r10, r24
    316e:	c2 60       	ori	r28, 0x02	; 2
    3170:	d1 50       	subi	r29, 0x01	; 1
    3172:	59 f0       	breq	.+22     	; 0x318a <conv_int+0xec>
    3174:	c8 01       	movw	r24, r16
    3176:	0e 94 da 1a 	call	0x35b4	; 0x35b4 <fgetc>
    317a:	97 ff       	sbrs	r25, 7
    317c:	dd cf       	rjmp	.-70     	; 0x3138 <conv_int+0x9a>
    317e:	c1 fd       	sbrc	r28, 1
    3180:	04 c0       	rjmp	.+8      	; 0x318a <conv_int+0xec>
    3182:	aa cf       	rjmp	.-172    	; 0x30d8 <conv_int+0x3a>
    3184:	81 2c       	mov	r8, r1
    3186:	91 2c       	mov	r9, r1
    3188:	54 01       	movw	r10, r8
    318a:	c7 ff       	sbrs	r28, 7
    318c:	08 c0       	rjmp	.+16     	; 0x319e <conv_int+0x100>
    318e:	b0 94       	com	r11
    3190:	a0 94       	com	r10
    3192:	90 94       	com	r9
    3194:	80 94       	com	r8
    3196:	81 1c       	adc	r8, r1
    3198:	91 1c       	adc	r9, r1
    319a:	a1 1c       	adc	r10, r1
    319c:	b1 1c       	adc	r11, r1
    319e:	2c 2f       	mov	r18, r28
    31a0:	b5 01       	movw	r22, r10
    31a2:	a4 01       	movw	r20, r8
    31a4:	c7 01       	movw	r24, r14
    31a6:	0e 94 03 18 	call	0x3006	; 0x3006 <putval>
    31aa:	81 e0       	ldi	r24, 0x01	; 1
    31ac:	df 91       	pop	r29
    31ae:	cf 91       	pop	r28
    31b0:	1f 91       	pop	r17
    31b2:	0f 91       	pop	r16
    31b4:	ff 90       	pop	r15
    31b6:	ef 90       	pop	r14
    31b8:	bf 90       	pop	r11
    31ba:	af 90       	pop	r10
    31bc:	9f 90       	pop	r9
    31be:	8f 90       	pop	r8
    31c0:	08 95       	ret

000031c2 <conv_brk>:
    31c2:	a0 e2       	ldi	r26, 0x20	; 32
    31c4:	b0 e0       	ldi	r27, 0x00	; 0
    31c6:	e7 ee       	ldi	r30, 0xE7	; 231
    31c8:	f8 e1       	ldi	r31, 0x18	; 24
    31ca:	0c 94 1b 1c 	jmp	0x3836	; 0x3836 <__prologue_saves__+0x6>
    31ce:	5c 01       	movw	r10, r24
    31d0:	96 2e       	mov	r9, r22
    31d2:	7a 01       	movw	r14, r20
    31d4:	f9 01       	movw	r30, r18
    31d6:	8e 01       	movw	r16, r28
    31d8:	0f 5f       	subi	r16, 0xFF	; 255
    31da:	1f 4f       	sbci	r17, 0xFF	; 255
    31dc:	68 01       	movw	r12, r16
    31de:	80 e2       	ldi	r24, 0x20	; 32
    31e0:	d8 01       	movw	r26, r16
    31e2:	1d 92       	st	X+, r1
    31e4:	8a 95       	dec	r24
    31e6:	e9 f7       	brne	.-6      	; 0x31e2 <conv_brk+0x20>
    31e8:	d5 01       	movw	r26, r10
    31ea:	13 96       	adiw	r26, 0x03	; 3
    31ec:	8c 90       	ld	r8, X
    31ee:	80 e0       	ldi	r24, 0x00	; 0
    31f0:	90 e0       	ldi	r25, 0x00	; 0
    31f2:	61 2c       	mov	r6, r1
    31f4:	71 2c       	mov	r7, r1
    31f6:	30 e0       	ldi	r19, 0x00	; 0
    31f8:	61 e0       	ldi	r22, 0x01	; 1
    31fa:	70 e0       	ldi	r23, 0x00	; 0
    31fc:	83 fc       	sbrc	r8, 3
    31fe:	25 91       	lpm	r18, Z+
    3200:	83 fe       	sbrs	r8, 3
    3202:	21 91       	ld	r18, Z+
    3204:	8f 01       	movw	r16, r30
    3206:	52 2e       	mov	r5, r18
    3208:	21 11       	cpse	r18, r1
    320a:	03 c0       	rjmp	.+6      	; 0x3212 <conv_brk+0x50>
    320c:	80 e0       	ldi	r24, 0x00	; 0
    320e:	90 e0       	ldi	r25, 0x00	; 0
    3210:	92 c0       	rjmp	.+292    	; 0x3336 <conv_brk+0x174>
    3212:	2e 35       	cpi	r18, 0x5E	; 94
    3214:	11 f4       	brne	.+4      	; 0x321a <conv_brk+0x58>
    3216:	00 97       	sbiw	r24, 0x00	; 0
    3218:	51 f1       	breq	.+84     	; 0x326e <conv_brk+0xac>
    321a:	43 2f       	mov	r20, r19
    321c:	50 e0       	ldi	r21, 0x00	; 0
    321e:	48 17       	cp	r20, r24
    3220:	59 07       	cpc	r21, r25
    3222:	3c f4       	brge	.+14     	; 0x3232 <conv_brk+0x70>
    3224:	2d 35       	cpi	r18, 0x5D	; 93
    3226:	59 f1       	breq	.+86     	; 0x327e <conv_brk+0xbc>
    3228:	2d 32       	cpi	r18, 0x2D	; 45
    322a:	19 f4       	brne	.+6      	; 0x3232 <conv_brk+0x70>
    322c:	77 20       	and	r7, r7
    322e:	09 f1       	breq	.+66     	; 0x3272 <conv_brk+0xb0>
    3230:	03 c0       	rjmp	.+6      	; 0x3238 <conv_brk+0x76>
    3232:	77 20       	and	r7, r7
    3234:	09 f4       	brne	.+2      	; 0x3238 <conv_brk+0x76>
    3236:	6a c0       	rjmp	.+212    	; 0x330c <conv_brk+0x14a>
    3238:	45 2d       	mov	r20, r5
    323a:	46 95       	lsr	r20
    323c:	46 95       	lsr	r20
    323e:	46 95       	lsr	r20
    3240:	d6 01       	movw	r26, r12
    3242:	a4 0f       	add	r26, r20
    3244:	b1 1d       	adc	r27, r1
    3246:	45 2d       	mov	r20, r5
    3248:	47 70       	andi	r20, 0x07	; 7
    324a:	8b 01       	movw	r16, r22
    324c:	02 c0       	rjmp	.+4      	; 0x3252 <conv_brk+0x90>
    324e:	00 0f       	add	r16, r16
    3250:	11 1f       	adc	r17, r17
    3252:	4a 95       	dec	r20
    3254:	e2 f7       	brpl	.-8      	; 0x324e <conv_brk+0x8c>
    3256:	a8 01       	movw	r20, r16
    3258:	5c 91       	ld	r21, X
    325a:	45 2b       	or	r20, r21
    325c:	4c 93       	st	X, r20
    325e:	65 14       	cp	r6, r5
    3260:	59 f0       	breq	.+22     	; 0x3278 <conv_brk+0xb6>
    3262:	56 14       	cp	r5, r6
    3264:	10 f4       	brcc	.+4      	; 0x326a <conv_brk+0xa8>
    3266:	53 94       	inc	r5
    3268:	e7 cf       	rjmp	.-50     	; 0x3238 <conv_brk+0x76>
    326a:	5a 94       	dec	r5
    326c:	e5 cf       	rjmp	.-54     	; 0x3238 <conv_brk+0x76>
    326e:	31 e0       	ldi	r19, 0x01	; 1
    3270:	04 c0       	rjmp	.+8      	; 0x327a <conv_brk+0xb8>
    3272:	77 24       	eor	r7, r7
    3274:	73 94       	inc	r7
    3276:	01 c0       	rjmp	.+2      	; 0x327a <conv_brk+0xb8>
    3278:	71 2c       	mov	r7, r1
    327a:	01 96       	adiw	r24, 0x01	; 1
    327c:	bf cf       	rjmp	.-130    	; 0x31fc <conv_brk+0x3a>
    327e:	77 20       	and	r7, r7
    3280:	19 f0       	breq	.+6      	; 0x3288 <conv_brk+0xc6>
    3282:	8e 81       	ldd	r24, Y+6	; 0x06
    3284:	80 62       	ori	r24, 0x20	; 32
    3286:	8e 83       	std	Y+6, r24	; 0x06
    3288:	31 11       	cpse	r19, r1
    328a:	03 c0       	rjmp	.+6      	; 0x3292 <conv_brk+0xd0>
    328c:	88 24       	eor	r8, r8
    328e:	83 94       	inc	r8
    3290:	17 c0       	rjmp	.+46     	; 0x32c0 <conv_brk+0xfe>
    3292:	f6 01       	movw	r30, r12
    3294:	9e 01       	movw	r18, r28
    3296:	2f 5d       	subi	r18, 0xDF	; 223
    3298:	3f 4f       	sbci	r19, 0xFF	; 255
    329a:	80 81       	ld	r24, Z
    329c:	80 95       	com	r24
    329e:	81 93       	st	Z+, r24
    32a0:	2e 17       	cp	r18, r30
    32a2:	3f 07       	cpc	r19, r31
    32a4:	d1 f7       	brne	.-12     	; 0x329a <conv_brk+0xd8>
    32a6:	f2 cf       	rjmp	.-28     	; 0x328c <conv_brk+0xca>
    32a8:	e1 14       	cp	r14, r1
    32aa:	f1 04       	cpc	r15, r1
    32ac:	29 f0       	breq	.+10     	; 0x32b8 <conv_brk+0xf6>
    32ae:	d7 01       	movw	r26, r14
    32b0:	8c 93       	st	X, r24
    32b2:	f7 01       	movw	r30, r14
    32b4:	31 96       	adiw	r30, 0x01	; 1
    32b6:	7f 01       	movw	r14, r30
    32b8:	9a 94       	dec	r9
    32ba:	81 2c       	mov	r8, r1
    32bc:	99 20       	and	r9, r9
    32be:	f9 f0       	breq	.+62     	; 0x32fe <conv_brk+0x13c>
    32c0:	c5 01       	movw	r24, r10
    32c2:	0e 94 da 1a 	call	0x35b4	; 0x35b4 <fgetc>
    32c6:	97 fd       	sbrc	r25, 7
    32c8:	18 c0       	rjmp	.+48     	; 0x32fa <conv_brk+0x138>
    32ca:	fc 01       	movw	r30, r24
    32cc:	ff 27       	eor	r31, r31
    32ce:	23 e0       	ldi	r18, 0x03	; 3
    32d0:	f5 95       	asr	r31
    32d2:	e7 95       	ror	r30
    32d4:	2a 95       	dec	r18
    32d6:	e1 f7       	brne	.-8      	; 0x32d0 <conv_brk+0x10e>
    32d8:	ec 0d       	add	r30, r12
    32da:	fd 1d       	adc	r31, r13
    32dc:	20 81       	ld	r18, Z
    32de:	30 e0       	ldi	r19, 0x00	; 0
    32e0:	ac 01       	movw	r20, r24
    32e2:	47 70       	andi	r20, 0x07	; 7
    32e4:	55 27       	eor	r21, r21
    32e6:	02 c0       	rjmp	.+4      	; 0x32ec <conv_brk+0x12a>
    32e8:	35 95       	asr	r19
    32ea:	27 95       	ror	r18
    32ec:	4a 95       	dec	r20
    32ee:	e2 f7       	brpl	.-8      	; 0x32e8 <conv_brk+0x126>
    32f0:	20 fd       	sbrc	r18, 0
    32f2:	da cf       	rjmp	.-76     	; 0x32a8 <conv_brk+0xe6>
    32f4:	b5 01       	movw	r22, r10
    32f6:	0e 94 54 1b 	call	0x36a8	; 0x36a8 <ungetc>
    32fa:	81 10       	cpse	r8, r1
    32fc:	87 cf       	rjmp	.-242    	; 0x320c <conv_brk+0x4a>
    32fe:	e1 14       	cp	r14, r1
    3300:	f1 04       	cpc	r15, r1
    3302:	11 f0       	breq	.+4      	; 0x3308 <conv_brk+0x146>
    3304:	d7 01       	movw	r26, r14
    3306:	1c 92       	st	X, r1
    3308:	c8 01       	movw	r24, r16
    330a:	15 c0       	rjmp	.+42     	; 0x3336 <conv_brk+0x174>
    330c:	42 2f       	mov	r20, r18
    330e:	46 95       	lsr	r20
    3310:	46 95       	lsr	r20
    3312:	46 95       	lsr	r20
    3314:	d6 01       	movw	r26, r12
    3316:	a4 0f       	add	r26, r20
    3318:	b1 1d       	adc	r27, r1
    331a:	42 2f       	mov	r20, r18
    331c:	47 70       	andi	r20, 0x07	; 7
    331e:	8b 01       	movw	r16, r22
    3320:	02 c0       	rjmp	.+4      	; 0x3326 <conv_brk+0x164>
    3322:	00 0f       	add	r16, r16
    3324:	11 1f       	adc	r17, r17
    3326:	4a 95       	dec	r20
    3328:	e2 f7       	brpl	.-8      	; 0x3322 <conv_brk+0x160>
    332a:	a8 01       	movw	r20, r16
    332c:	5c 91       	ld	r21, X
    332e:	45 2b       	or	r20, r21
    3330:	4c 93       	st	X, r20
    3332:	62 2e       	mov	r6, r18
    3334:	a2 cf       	rjmp	.-188    	; 0x327a <conv_brk+0xb8>
    3336:	a0 96       	adiw	r28, 0x20	; 32
    3338:	ef e0       	ldi	r30, 0x0F	; 15
    333a:	0c 94 37 1c 	jmp	0x386e	; 0x386e <__epilogue_restores__+0x6>

0000333e <vfscanf>:
    333e:	a0 e0       	ldi	r26, 0x00	; 0
    3340:	b0 e0       	ldi	r27, 0x00	; 0
    3342:	e5 ea       	ldi	r30, 0xA5	; 165
    3344:	f9 e1       	ldi	r31, 0x19	; 25
    3346:	0c 94 1b 1c 	jmp	0x3836	; 0x3836 <__prologue_saves__+0x6>
    334a:	6c 01       	movw	r12, r24
    334c:	eb 01       	movw	r28, r22
    334e:	5a 01       	movw	r10, r20
    3350:	fc 01       	movw	r30, r24
    3352:	17 82       	std	Z+7, r1	; 0x07
    3354:	16 82       	std	Z+6, r1	; 0x06
    3356:	51 2c       	mov	r5, r1
    3358:	f6 01       	movw	r30, r12
    335a:	e3 80       	ldd	r14, Z+3	; 0x03
    335c:	fe 01       	movw	r30, r28
    335e:	e3 fc       	sbrc	r14, 3
    3360:	85 91       	lpm	r24, Z+
    3362:	e3 fe       	sbrs	r14, 3
    3364:	81 91       	ld	r24, Z+
    3366:	18 2f       	mov	r17, r24
    3368:	ef 01       	movw	r28, r30
    336a:	88 23       	and	r24, r24
    336c:	09 f4       	brne	.+2      	; 0x3370 <vfscanf+0x32>
    336e:	ee c0       	rjmp	.+476    	; 0x354c <vfscanf+0x20e>
    3370:	90 e0       	ldi	r25, 0x00	; 0
    3372:	0e 94 b0 1a 	call	0x3560	; 0x3560 <isspace>
    3376:	89 2b       	or	r24, r25
    3378:	21 f0       	breq	.+8      	; 0x3382 <vfscanf+0x44>
    337a:	c6 01       	movw	r24, r12
    337c:	0e 94 36 18 	call	0x306c	; 0x306c <skip_spaces>
    3380:	eb cf       	rjmp	.-42     	; 0x3358 <vfscanf+0x1a>
    3382:	15 32       	cpi	r17, 0x25	; 37
    3384:	41 f4       	brne	.+16     	; 0x3396 <vfscanf+0x58>
    3386:	fe 01       	movw	r30, r28
    3388:	e3 fc       	sbrc	r14, 3
    338a:	15 91       	lpm	r17, Z+
    338c:	e3 fe       	sbrs	r14, 3
    338e:	11 91       	ld	r17, Z+
    3390:	ef 01       	movw	r28, r30
    3392:	15 32       	cpi	r17, 0x25	; 37
    3394:	81 f4       	brne	.+32     	; 0x33b6 <vfscanf+0x78>
    3396:	c6 01       	movw	r24, r12
    3398:	0e 94 da 1a 	call	0x35b4	; 0x35b4 <fgetc>
    339c:	97 fd       	sbrc	r25, 7
    339e:	d4 c0       	rjmp	.+424    	; 0x3548 <vfscanf+0x20a>
    33a0:	41 2f       	mov	r20, r17
    33a2:	50 e0       	ldi	r21, 0x00	; 0
    33a4:	9c 01       	movw	r18, r24
    33a6:	33 27       	eor	r19, r19
    33a8:	24 17       	cp	r18, r20
    33aa:	35 07       	cpc	r19, r21
    33ac:	a9 f2       	breq	.-86     	; 0x3358 <vfscanf+0x1a>
    33ae:	b6 01       	movw	r22, r12
    33b0:	0e 94 54 1b 	call	0x36a8	; 0x36a8 <ungetc>
    33b4:	cb c0       	rjmp	.+406    	; 0x354c <vfscanf+0x20e>
    33b6:	1a 32       	cpi	r17, 0x2A	; 42
    33b8:	39 f4       	brne	.+14     	; 0x33c8 <vfscanf+0x8a>
    33ba:	e3 fc       	sbrc	r14, 3
    33bc:	15 91       	lpm	r17, Z+
    33be:	e3 fe       	sbrs	r14, 3
    33c0:	11 91       	ld	r17, Z+
    33c2:	ef 01       	movw	r28, r30
    33c4:	01 e0       	ldi	r16, 0x01	; 1
    33c6:	01 c0       	rjmp	.+2      	; 0x33ca <vfscanf+0x8c>
    33c8:	00 e0       	ldi	r16, 0x00	; 0
    33ca:	f1 2c       	mov	r15, r1
    33cc:	20 ed       	ldi	r18, 0xD0	; 208
    33ce:	21 0f       	add	r18, r17
    33d0:	2a 30       	cpi	r18, 0x0A	; 10
    33d2:	80 f4       	brcc	.+32     	; 0x33f4 <vfscanf+0xb6>
    33d4:	02 60       	ori	r16, 0x02	; 2
    33d6:	6f 2d       	mov	r22, r15
    33d8:	70 e0       	ldi	r23, 0x00	; 0
    33da:	80 e0       	ldi	r24, 0x00	; 0
    33dc:	90 e0       	ldi	r25, 0x00	; 0
    33de:	40 e2       	ldi	r20, 0x20	; 32
    33e0:	0e 94 0f 18 	call	0x301e	; 0x301e <mulacc>
    33e4:	f6 2e       	mov	r15, r22
    33e6:	fe 01       	movw	r30, r28
    33e8:	e3 fc       	sbrc	r14, 3
    33ea:	15 91       	lpm	r17, Z+
    33ec:	e3 fe       	sbrs	r14, 3
    33ee:	11 91       	ld	r17, Z+
    33f0:	ef 01       	movw	r28, r30
    33f2:	ec cf       	rjmp	.-40     	; 0x33cc <vfscanf+0x8e>
    33f4:	01 ff       	sbrs	r16, 1
    33f6:	03 c0       	rjmp	.+6      	; 0x33fe <vfscanf+0xc0>
    33f8:	f1 10       	cpse	r15, r1
    33fa:	03 c0       	rjmp	.+6      	; 0x3402 <vfscanf+0xc4>
    33fc:	a7 c0       	rjmp	.+334    	; 0x354c <vfscanf+0x20e>
    33fe:	ff 24       	eor	r15, r15
    3400:	fa 94       	dec	r15
    3402:	18 36       	cpi	r17, 0x68	; 104
    3404:	19 f0       	breq	.+6      	; 0x340c <vfscanf+0xce>
    3406:	1c 36       	cpi	r17, 0x6C	; 108
    3408:	51 f0       	breq	.+20     	; 0x341e <vfscanf+0xe0>
    340a:	10 c0       	rjmp	.+32     	; 0x342c <vfscanf+0xee>
    340c:	fe 01       	movw	r30, r28
    340e:	e3 fc       	sbrc	r14, 3
    3410:	15 91       	lpm	r17, Z+
    3412:	e3 fe       	sbrs	r14, 3
    3414:	11 91       	ld	r17, Z+
    3416:	ef 01       	movw	r28, r30
    3418:	18 36       	cpi	r17, 0x68	; 104
    341a:	41 f4       	brne	.+16     	; 0x342c <vfscanf+0xee>
    341c:	08 60       	ori	r16, 0x08	; 8
    341e:	04 60       	ori	r16, 0x04	; 4
    3420:	fe 01       	movw	r30, r28
    3422:	e3 fc       	sbrc	r14, 3
    3424:	15 91       	lpm	r17, Z+
    3426:	e3 fe       	sbrs	r14, 3
    3428:	11 91       	ld	r17, Z+
    342a:	ef 01       	movw	r28, r30
    342c:	11 23       	and	r17, r17
    342e:	09 f4       	brne	.+2      	; 0x3432 <vfscanf+0xf4>
    3430:	8d c0       	rjmp	.+282    	; 0x354c <vfscanf+0x20e>
    3432:	61 2f       	mov	r22, r17
    3434:	70 e0       	ldi	r23, 0x00	; 0
    3436:	8c ea       	ldi	r24, 0xAC	; 172
    3438:	90 e0       	ldi	r25, 0x00	; 0
    343a:	0e 94 b9 1a 	call	0x3572	; 0x3572 <strchr_P>
    343e:	89 2b       	or	r24, r25
    3440:	09 f4       	brne	.+2      	; 0x3444 <vfscanf+0x106>
    3442:	84 c0       	rjmp	.+264    	; 0x354c <vfscanf+0x20e>
    3444:	00 fd       	sbrc	r16, 0
    3446:	07 c0       	rjmp	.+14     	; 0x3456 <vfscanf+0x118>
    3448:	f5 01       	movw	r30, r10
    344a:	80 80       	ld	r8, Z
    344c:	91 80       	ldd	r9, Z+1	; 0x01
    344e:	c5 01       	movw	r24, r10
    3450:	02 96       	adiw	r24, 0x02	; 2
    3452:	5c 01       	movw	r10, r24
    3454:	02 c0       	rjmp	.+4      	; 0x345a <vfscanf+0x11c>
    3456:	81 2c       	mov	r8, r1
    3458:	91 2c       	mov	r9, r1
    345a:	1e 36       	cpi	r17, 0x6E	; 110
    345c:	51 f4       	brne	.+20     	; 0x3472 <vfscanf+0x134>
    345e:	f6 01       	movw	r30, r12
    3460:	46 81       	ldd	r20, Z+6	; 0x06
    3462:	57 81       	ldd	r21, Z+7	; 0x07
    3464:	60 e0       	ldi	r22, 0x00	; 0
    3466:	70 e0       	ldi	r23, 0x00	; 0
    3468:	20 2f       	mov	r18, r16
    346a:	c4 01       	movw	r24, r8
    346c:	0e 94 03 18 	call	0x3006	; 0x3006 <putval>
    3470:	73 cf       	rjmp	.-282    	; 0x3358 <vfscanf+0x1a>
    3472:	13 36       	cpi	r17, 0x63	; 99
    3474:	a9 f4       	brne	.+42     	; 0x34a0 <vfscanf+0x162>
    3476:	01 fd       	sbrc	r16, 1
    3478:	02 c0       	rjmp	.+4      	; 0x347e <vfscanf+0x140>
    347a:	ff 24       	eor	r15, r15
    347c:	f3 94       	inc	r15
    347e:	c6 01       	movw	r24, r12
    3480:	0e 94 da 1a 	call	0x35b4	; 0x35b4 <fgetc>
    3484:	97 fd       	sbrc	r25, 7
    3486:	60 c0       	rjmp	.+192    	; 0x3548 <vfscanf+0x20a>
    3488:	81 14       	cp	r8, r1
    348a:	91 04       	cpc	r9, r1
    348c:	29 f0       	breq	.+10     	; 0x3498 <vfscanf+0x15a>
    348e:	f4 01       	movw	r30, r8
    3490:	80 83       	st	Z, r24
    3492:	c4 01       	movw	r24, r8
    3494:	01 96       	adiw	r24, 0x01	; 1
    3496:	4c 01       	movw	r8, r24
    3498:	fa 94       	dec	r15
    349a:	f1 10       	cpse	r15, r1
    349c:	f0 cf       	rjmp	.-32     	; 0x347e <vfscanf+0x140>
    349e:	50 c0       	rjmp	.+160    	; 0x3540 <vfscanf+0x202>
    34a0:	1b 35       	cpi	r17, 0x5B	; 91
    34a2:	59 f4       	brne	.+22     	; 0x34ba <vfscanf+0x17c>
    34a4:	9e 01       	movw	r18, r28
    34a6:	a4 01       	movw	r20, r8
    34a8:	6f 2d       	mov	r22, r15
    34aa:	c6 01       	movw	r24, r12
    34ac:	0e 94 e1 18 	call	0x31c2	; 0x31c2 <conv_brk>
    34b0:	ec 01       	movw	r28, r24
    34b2:	89 2b       	or	r24, r25
    34b4:	09 f0       	breq	.+2      	; 0x34b8 <vfscanf+0x17a>
    34b6:	44 c0       	rjmp	.+136    	; 0x3540 <vfscanf+0x202>
    34b8:	3e c0       	rjmp	.+124    	; 0x3536 <vfscanf+0x1f8>
    34ba:	c6 01       	movw	r24, r12
    34bc:	0e 94 36 18 	call	0x306c	; 0x306c <skip_spaces>
    34c0:	97 fd       	sbrc	r25, 7
    34c2:	42 c0       	rjmp	.+132    	; 0x3548 <vfscanf+0x20a>
    34c4:	1f 36       	cpi	r17, 0x6F	; 111
    34c6:	61 f1       	breq	.+88     	; 0x3520 <vfscanf+0x1e2>
    34c8:	28 f4       	brcc	.+10     	; 0x34d4 <vfscanf+0x196>
    34ca:	14 36       	cpi	r17, 0x64	; 100
    34cc:	39 f1       	breq	.+78     	; 0x351c <vfscanf+0x1de>
    34ce:	19 36       	cpi	r17, 0x69	; 105
    34d0:	51 f1       	breq	.+84     	; 0x3526 <vfscanf+0x1e8>
    34d2:	28 c0       	rjmp	.+80     	; 0x3524 <vfscanf+0x1e6>
    34d4:	13 37       	cpi	r17, 0x73	; 115
    34d6:	71 f0       	breq	.+28     	; 0x34f4 <vfscanf+0x1b6>
    34d8:	15 37       	cpi	r17, 0x75	; 117
    34da:	01 f1       	breq	.+64     	; 0x351c <vfscanf+0x1de>
    34dc:	23 c0       	rjmp	.+70     	; 0x3524 <vfscanf+0x1e6>
    34de:	81 14       	cp	r8, r1
    34e0:	91 04       	cpc	r9, r1
    34e2:	29 f0       	breq	.+10     	; 0x34ee <vfscanf+0x1b0>
    34e4:	f4 01       	movw	r30, r8
    34e6:	60 82       	st	Z, r6
    34e8:	c4 01       	movw	r24, r8
    34ea:	01 96       	adiw	r24, 0x01	; 1
    34ec:	4c 01       	movw	r8, r24
    34ee:	fa 94       	dec	r15
    34f0:	ff 20       	and	r15, r15
    34f2:	71 f0       	breq	.+28     	; 0x3510 <vfscanf+0x1d2>
    34f4:	c6 01       	movw	r24, r12
    34f6:	0e 94 da 1a 	call	0x35b4	; 0x35b4 <fgetc>
    34fa:	3c 01       	movw	r6, r24
    34fc:	97 fd       	sbrc	r25, 7
    34fe:	08 c0       	rjmp	.+16     	; 0x3510 <vfscanf+0x1d2>
    3500:	0e 94 b0 1a 	call	0x3560	; 0x3560 <isspace>
    3504:	89 2b       	or	r24, r25
    3506:	59 f3       	breq	.-42     	; 0x34de <vfscanf+0x1a0>
    3508:	b6 01       	movw	r22, r12
    350a:	c3 01       	movw	r24, r6
    350c:	0e 94 54 1b 	call	0x36a8	; 0x36a8 <ungetc>
    3510:	81 14       	cp	r8, r1
    3512:	91 04       	cpc	r9, r1
    3514:	a9 f0       	breq	.+42     	; 0x3540 <vfscanf+0x202>
    3516:	f4 01       	movw	r30, r8
    3518:	10 82       	st	Z, r1
    351a:	12 c0       	rjmp	.+36     	; 0x3540 <vfscanf+0x202>
    351c:	00 62       	ori	r16, 0x20	; 32
    351e:	03 c0       	rjmp	.+6      	; 0x3526 <vfscanf+0x1e8>
    3520:	00 61       	ori	r16, 0x10	; 16
    3522:	01 c0       	rjmp	.+2      	; 0x3526 <vfscanf+0x1e8>
    3524:	00 64       	ori	r16, 0x40	; 64
    3526:	20 2f       	mov	r18, r16
    3528:	a4 01       	movw	r20, r8
    352a:	6f 2d       	mov	r22, r15
    352c:	c6 01       	movw	r24, r12
    352e:	0e 94 4f 18 	call	0x309e	; 0x309e <conv_int>
    3532:	81 11       	cpse	r24, r1
    3534:	05 c0       	rjmp	.+10     	; 0x3540 <vfscanf+0x202>
    3536:	f6 01       	movw	r30, r12
    3538:	83 81       	ldd	r24, Z+3	; 0x03
    353a:	80 73       	andi	r24, 0x30	; 48
    353c:	29 f4       	brne	.+10     	; 0x3548 <vfscanf+0x20a>
    353e:	06 c0       	rjmp	.+12     	; 0x354c <vfscanf+0x20e>
    3540:	00 fd       	sbrc	r16, 0
    3542:	0a cf       	rjmp	.-492    	; 0x3358 <vfscanf+0x1a>
    3544:	53 94       	inc	r5
    3546:	08 cf       	rjmp	.-496    	; 0x3358 <vfscanf+0x1a>
    3548:	55 20       	and	r5, r5
    354a:	19 f0       	breq	.+6      	; 0x3552 <vfscanf+0x214>
    354c:	85 2d       	mov	r24, r5
    354e:	90 e0       	ldi	r25, 0x00	; 0
    3550:	02 c0       	rjmp	.+4      	; 0x3556 <vfscanf+0x218>
    3552:	8f ef       	ldi	r24, 0xFF	; 255
    3554:	9f ef       	ldi	r25, 0xFF	; 255
    3556:	cd b7       	in	r28, 0x3d	; 61
    3558:	de b7       	in	r29, 0x3e	; 62
    355a:	ef e0       	ldi	r30, 0x0F	; 15
    355c:	0c 94 37 1c 	jmp	0x386e	; 0x386e <__epilogue_restores__+0x6>

00003560 <isspace>:
    3560:	91 11       	cpse	r25, r1
    3562:	0c 94 cb 1b 	jmp	0x3796	; 0x3796 <__ctype_isfalse>
    3566:	80 32       	cpi	r24, 0x20	; 32
    3568:	19 f0       	breq	.+6      	; 0x3570 <isspace+0x10>
    356a:	89 50       	subi	r24, 0x09	; 9
    356c:	85 50       	subi	r24, 0x05	; 5
    356e:	c8 f7       	brcc	.-14     	; 0x3562 <isspace+0x2>
    3570:	08 95       	ret

00003572 <strchr_P>:
    3572:	fc 01       	movw	r30, r24
    3574:	05 90       	lpm	r0, Z+
    3576:	06 16       	cp	r0, r22
    3578:	21 f0       	breq	.+8      	; 0x3582 <strchr_P+0x10>
    357a:	00 20       	and	r0, r0
    357c:	d9 f7       	brne	.-10     	; 0x3574 <strchr_P+0x2>
    357e:	c0 01       	movw	r24, r0
    3580:	08 95       	ret
    3582:	31 97       	sbiw	r30, 0x01	; 1
    3584:	cf 01       	movw	r24, r30
    3586:	08 95       	ret

00003588 <strnlen_P>:
    3588:	fc 01       	movw	r30, r24
    358a:	05 90       	lpm	r0, Z+
    358c:	61 50       	subi	r22, 0x01	; 1
    358e:	70 40       	sbci	r23, 0x00	; 0
    3590:	01 10       	cpse	r0, r1
    3592:	d8 f7       	brcc	.-10     	; 0x358a <strnlen_P+0x2>
    3594:	80 95       	com	r24
    3596:	90 95       	com	r25
    3598:	8e 0f       	add	r24, r30
    359a:	9f 1f       	adc	r25, r31
    359c:	08 95       	ret

0000359e <strnlen>:
    359e:	fc 01       	movw	r30, r24
    35a0:	61 50       	subi	r22, 0x01	; 1
    35a2:	70 40       	sbci	r23, 0x00	; 0
    35a4:	01 90       	ld	r0, Z+
    35a6:	01 10       	cpse	r0, r1
    35a8:	d8 f7       	brcc	.-10     	; 0x35a0 <strnlen+0x2>
    35aa:	80 95       	com	r24
    35ac:	90 95       	com	r25
    35ae:	8e 0f       	add	r24, r30
    35b0:	9f 1f       	adc	r25, r31
    35b2:	08 95       	ret

000035b4 <fgetc>:
    35b4:	cf 93       	push	r28
    35b6:	df 93       	push	r29
    35b8:	ec 01       	movw	r28, r24
    35ba:	2b 81       	ldd	r18, Y+3	; 0x03
    35bc:	20 ff       	sbrs	r18, 0
    35be:	33 c0       	rjmp	.+102    	; 0x3626 <fgetc+0x72>
    35c0:	26 ff       	sbrs	r18, 6
    35c2:	0a c0       	rjmp	.+20     	; 0x35d8 <fgetc+0x24>
    35c4:	2f 7b       	andi	r18, 0xBF	; 191
    35c6:	2b 83       	std	Y+3, r18	; 0x03
    35c8:	8e 81       	ldd	r24, Y+6	; 0x06
    35ca:	9f 81       	ldd	r25, Y+7	; 0x07
    35cc:	01 96       	adiw	r24, 0x01	; 1
    35ce:	9f 83       	std	Y+7, r25	; 0x07
    35d0:	8e 83       	std	Y+6, r24	; 0x06
    35d2:	8a 81       	ldd	r24, Y+2	; 0x02
    35d4:	90 e0       	ldi	r25, 0x00	; 0
    35d6:	29 c0       	rjmp	.+82     	; 0x362a <fgetc+0x76>
    35d8:	22 ff       	sbrs	r18, 2
    35da:	0f c0       	rjmp	.+30     	; 0x35fa <fgetc+0x46>
    35dc:	e8 81       	ld	r30, Y
    35de:	f9 81       	ldd	r31, Y+1	; 0x01
    35e0:	80 81       	ld	r24, Z
    35e2:	08 2e       	mov	r0, r24
    35e4:	00 0c       	add	r0, r0
    35e6:	99 0b       	sbc	r25, r25
    35e8:	00 97       	sbiw	r24, 0x00	; 0
    35ea:	19 f4       	brne	.+6      	; 0x35f2 <fgetc+0x3e>
    35ec:	20 62       	ori	r18, 0x20	; 32
    35ee:	2b 83       	std	Y+3, r18	; 0x03
    35f0:	1a c0       	rjmp	.+52     	; 0x3626 <fgetc+0x72>
    35f2:	31 96       	adiw	r30, 0x01	; 1
    35f4:	f9 83       	std	Y+1, r31	; 0x01
    35f6:	e8 83       	st	Y, r30
    35f8:	0e c0       	rjmp	.+28     	; 0x3616 <fgetc+0x62>
    35fa:	ea 85       	ldd	r30, Y+10	; 0x0a
    35fc:	fb 85       	ldd	r31, Y+11	; 0x0b
    35fe:	09 95       	icall
    3600:	97 ff       	sbrs	r25, 7
    3602:	09 c0       	rjmp	.+18     	; 0x3616 <fgetc+0x62>
    3604:	2b 81       	ldd	r18, Y+3	; 0x03
    3606:	01 96       	adiw	r24, 0x01	; 1
    3608:	11 f0       	breq	.+4      	; 0x360e <fgetc+0x5a>
    360a:	80 e2       	ldi	r24, 0x20	; 32
    360c:	01 c0       	rjmp	.+2      	; 0x3610 <fgetc+0x5c>
    360e:	80 e1       	ldi	r24, 0x10	; 16
    3610:	82 2b       	or	r24, r18
    3612:	8b 83       	std	Y+3, r24	; 0x03
    3614:	08 c0       	rjmp	.+16     	; 0x3626 <fgetc+0x72>
    3616:	2e 81       	ldd	r18, Y+6	; 0x06
    3618:	3f 81       	ldd	r19, Y+7	; 0x07
    361a:	2f 5f       	subi	r18, 0xFF	; 255
    361c:	3f 4f       	sbci	r19, 0xFF	; 255
    361e:	3f 83       	std	Y+7, r19	; 0x07
    3620:	2e 83       	std	Y+6, r18	; 0x06
    3622:	99 27       	eor	r25, r25
    3624:	02 c0       	rjmp	.+4      	; 0x362a <fgetc+0x76>
    3626:	8f ef       	ldi	r24, 0xFF	; 255
    3628:	9f ef       	ldi	r25, 0xFF	; 255
    362a:	df 91       	pop	r29
    362c:	cf 91       	pop	r28
    362e:	08 95       	ret

00003630 <fputc>:
    3630:	0f 93       	push	r16
    3632:	1f 93       	push	r17
    3634:	cf 93       	push	r28
    3636:	df 93       	push	r29
    3638:	fb 01       	movw	r30, r22
    363a:	23 81       	ldd	r18, Z+3	; 0x03
    363c:	21 fd       	sbrc	r18, 1
    363e:	03 c0       	rjmp	.+6      	; 0x3646 <fputc+0x16>
    3640:	8f ef       	ldi	r24, 0xFF	; 255
    3642:	9f ef       	ldi	r25, 0xFF	; 255
    3644:	2c c0       	rjmp	.+88     	; 0x369e <fputc+0x6e>
    3646:	22 ff       	sbrs	r18, 2
    3648:	16 c0       	rjmp	.+44     	; 0x3676 <fputc+0x46>
    364a:	46 81       	ldd	r20, Z+6	; 0x06
    364c:	57 81       	ldd	r21, Z+7	; 0x07
    364e:	24 81       	ldd	r18, Z+4	; 0x04
    3650:	35 81       	ldd	r19, Z+5	; 0x05
    3652:	42 17       	cp	r20, r18
    3654:	53 07       	cpc	r21, r19
    3656:	44 f4       	brge	.+16     	; 0x3668 <fputc+0x38>
    3658:	a0 81       	ld	r26, Z
    365a:	b1 81       	ldd	r27, Z+1	; 0x01
    365c:	9d 01       	movw	r18, r26
    365e:	2f 5f       	subi	r18, 0xFF	; 255
    3660:	3f 4f       	sbci	r19, 0xFF	; 255
    3662:	31 83       	std	Z+1, r19	; 0x01
    3664:	20 83       	st	Z, r18
    3666:	8c 93       	st	X, r24
    3668:	26 81       	ldd	r18, Z+6	; 0x06
    366a:	37 81       	ldd	r19, Z+7	; 0x07
    366c:	2f 5f       	subi	r18, 0xFF	; 255
    366e:	3f 4f       	sbci	r19, 0xFF	; 255
    3670:	37 83       	std	Z+7, r19	; 0x07
    3672:	26 83       	std	Z+6, r18	; 0x06
    3674:	14 c0       	rjmp	.+40     	; 0x369e <fputc+0x6e>
    3676:	8b 01       	movw	r16, r22
    3678:	ec 01       	movw	r28, r24
    367a:	fb 01       	movw	r30, r22
    367c:	00 84       	ldd	r0, Z+8	; 0x08
    367e:	f1 85       	ldd	r31, Z+9	; 0x09
    3680:	e0 2d       	mov	r30, r0
    3682:	09 95       	icall
    3684:	89 2b       	or	r24, r25
    3686:	e1 f6       	brne	.-72     	; 0x3640 <fputc+0x10>
    3688:	d8 01       	movw	r26, r16
    368a:	16 96       	adiw	r26, 0x06	; 6
    368c:	8d 91       	ld	r24, X+
    368e:	9c 91       	ld	r25, X
    3690:	17 97       	sbiw	r26, 0x07	; 7
    3692:	01 96       	adiw	r24, 0x01	; 1
    3694:	17 96       	adiw	r26, 0x07	; 7
    3696:	9c 93       	st	X, r25
    3698:	8e 93       	st	-X, r24
    369a:	16 97       	sbiw	r26, 0x06	; 6
    369c:	ce 01       	movw	r24, r28
    369e:	df 91       	pop	r29
    36a0:	cf 91       	pop	r28
    36a2:	1f 91       	pop	r17
    36a4:	0f 91       	pop	r16
    36a6:	08 95       	ret

000036a8 <ungetc>:
    36a8:	fb 01       	movw	r30, r22
    36aa:	23 81       	ldd	r18, Z+3	; 0x03
    36ac:	20 ff       	sbrs	r18, 0
    36ae:	12 c0       	rjmp	.+36     	; 0x36d4 <ungetc+0x2c>
    36b0:	26 fd       	sbrc	r18, 6
    36b2:	10 c0       	rjmp	.+32     	; 0x36d4 <ungetc+0x2c>
    36b4:	8f 3f       	cpi	r24, 0xFF	; 255
    36b6:	3f ef       	ldi	r19, 0xFF	; 255
    36b8:	93 07       	cpc	r25, r19
    36ba:	61 f0       	breq	.+24     	; 0x36d4 <ungetc+0x2c>
    36bc:	82 83       	std	Z+2, r24	; 0x02
    36be:	2f 7d       	andi	r18, 0xDF	; 223
    36c0:	20 64       	ori	r18, 0x40	; 64
    36c2:	23 83       	std	Z+3, r18	; 0x03
    36c4:	26 81       	ldd	r18, Z+6	; 0x06
    36c6:	37 81       	ldd	r19, Z+7	; 0x07
    36c8:	21 50       	subi	r18, 0x01	; 1
    36ca:	31 09       	sbc	r19, r1
    36cc:	37 83       	std	Z+7, r19	; 0x07
    36ce:	26 83       	std	Z+6, r18	; 0x06
    36d0:	99 27       	eor	r25, r25
    36d2:	08 95       	ret
    36d4:	8f ef       	ldi	r24, 0xFF	; 255
    36d6:	9f ef       	ldi	r25, 0xFF	; 255
    36d8:	08 95       	ret

000036da <__ultoa_invert>:
    36da:	fa 01       	movw	r30, r20
    36dc:	aa 27       	eor	r26, r26
    36de:	28 30       	cpi	r18, 0x08	; 8
    36e0:	51 f1       	breq	.+84     	; 0x3736 <__ultoa_invert+0x5c>
    36e2:	20 31       	cpi	r18, 0x10	; 16
    36e4:	81 f1       	breq	.+96     	; 0x3746 <__ultoa_invert+0x6c>
    36e6:	e8 94       	clt
    36e8:	6f 93       	push	r22
    36ea:	6e 7f       	andi	r22, 0xFE	; 254
    36ec:	6e 5f       	subi	r22, 0xFE	; 254
    36ee:	7f 4f       	sbci	r23, 0xFF	; 255
    36f0:	8f 4f       	sbci	r24, 0xFF	; 255
    36f2:	9f 4f       	sbci	r25, 0xFF	; 255
    36f4:	af 4f       	sbci	r26, 0xFF	; 255
    36f6:	b1 e0       	ldi	r27, 0x01	; 1
    36f8:	3e d0       	rcall	.+124    	; 0x3776 <__ultoa_invert+0x9c>
    36fa:	b4 e0       	ldi	r27, 0x04	; 4
    36fc:	3c d0       	rcall	.+120    	; 0x3776 <__ultoa_invert+0x9c>
    36fe:	67 0f       	add	r22, r23
    3700:	78 1f       	adc	r23, r24
    3702:	89 1f       	adc	r24, r25
    3704:	9a 1f       	adc	r25, r26
    3706:	a1 1d       	adc	r26, r1
    3708:	68 0f       	add	r22, r24
    370a:	79 1f       	adc	r23, r25
    370c:	8a 1f       	adc	r24, r26
    370e:	91 1d       	adc	r25, r1
    3710:	a1 1d       	adc	r26, r1
    3712:	6a 0f       	add	r22, r26
    3714:	71 1d       	adc	r23, r1
    3716:	81 1d       	adc	r24, r1
    3718:	91 1d       	adc	r25, r1
    371a:	a1 1d       	adc	r26, r1
    371c:	20 d0       	rcall	.+64     	; 0x375e <__ultoa_invert+0x84>
    371e:	09 f4       	brne	.+2      	; 0x3722 <__ultoa_invert+0x48>
    3720:	68 94       	set
    3722:	3f 91       	pop	r19
    3724:	2a e0       	ldi	r18, 0x0A	; 10
    3726:	26 9f       	mul	r18, r22
    3728:	11 24       	eor	r1, r1
    372a:	30 19       	sub	r19, r0
    372c:	30 5d       	subi	r19, 0xD0	; 208
    372e:	31 93       	st	Z+, r19
    3730:	de f6       	brtc	.-74     	; 0x36e8 <__ultoa_invert+0xe>
    3732:	cf 01       	movw	r24, r30
    3734:	08 95       	ret
    3736:	46 2f       	mov	r20, r22
    3738:	47 70       	andi	r20, 0x07	; 7
    373a:	40 5d       	subi	r20, 0xD0	; 208
    373c:	41 93       	st	Z+, r20
    373e:	b3 e0       	ldi	r27, 0x03	; 3
    3740:	0f d0       	rcall	.+30     	; 0x3760 <__ultoa_invert+0x86>
    3742:	c9 f7       	brne	.-14     	; 0x3736 <__ultoa_invert+0x5c>
    3744:	f6 cf       	rjmp	.-20     	; 0x3732 <__ultoa_invert+0x58>
    3746:	46 2f       	mov	r20, r22
    3748:	4f 70       	andi	r20, 0x0F	; 15
    374a:	40 5d       	subi	r20, 0xD0	; 208
    374c:	4a 33       	cpi	r20, 0x3A	; 58
    374e:	18 f0       	brcs	.+6      	; 0x3756 <__ultoa_invert+0x7c>
    3750:	49 5d       	subi	r20, 0xD9	; 217
    3752:	31 fd       	sbrc	r19, 1
    3754:	40 52       	subi	r20, 0x20	; 32
    3756:	41 93       	st	Z+, r20
    3758:	02 d0       	rcall	.+4      	; 0x375e <__ultoa_invert+0x84>
    375a:	a9 f7       	brne	.-22     	; 0x3746 <__ultoa_invert+0x6c>
    375c:	ea cf       	rjmp	.-44     	; 0x3732 <__ultoa_invert+0x58>
    375e:	b4 e0       	ldi	r27, 0x04	; 4
    3760:	a6 95       	lsr	r26
    3762:	97 95       	ror	r25
    3764:	87 95       	ror	r24
    3766:	77 95       	ror	r23
    3768:	67 95       	ror	r22
    376a:	ba 95       	dec	r27
    376c:	c9 f7       	brne	.-14     	; 0x3760 <__ultoa_invert+0x86>
    376e:	00 97       	sbiw	r24, 0x00	; 0
    3770:	61 05       	cpc	r22, r1
    3772:	71 05       	cpc	r23, r1
    3774:	08 95       	ret
    3776:	9b 01       	movw	r18, r22
    3778:	ac 01       	movw	r20, r24
    377a:	0a 2e       	mov	r0, r26
    377c:	06 94       	lsr	r0
    377e:	57 95       	ror	r21
    3780:	47 95       	ror	r20
    3782:	37 95       	ror	r19
    3784:	27 95       	ror	r18
    3786:	ba 95       	dec	r27
    3788:	c9 f7       	brne	.-14     	; 0x377c <__ultoa_invert+0xa2>
    378a:	62 0f       	add	r22, r18
    378c:	73 1f       	adc	r23, r19
    378e:	84 1f       	adc	r24, r20
    3790:	95 1f       	adc	r25, r21
    3792:	a0 1d       	adc	r26, r0
    3794:	08 95       	ret

00003796 <__ctype_isfalse>:
    3796:	99 27       	eor	r25, r25
    3798:	88 27       	eor	r24, r24

0000379a <__ctype_istrue>:
    379a:	08 95       	ret

0000379c <eeprom_read_block>:
    379c:	dc 01       	movw	r26, r24
    379e:	cb 01       	movw	r24, r22

000037a0 <eeprom_read_blraw>:
    37a0:	fc 01       	movw	r30, r24
    37a2:	f9 99       	sbic	0x1f, 1	; 31
    37a4:	fe cf       	rjmp	.-4      	; 0x37a2 <eeprom_read_blraw+0x2>
    37a6:	06 c0       	rjmp	.+12     	; 0x37b4 <eeprom_read_blraw+0x14>
    37a8:	f2 bd       	out	0x22, r31	; 34
    37aa:	e1 bd       	out	0x21, r30	; 33
    37ac:	f8 9a       	sbi	0x1f, 0	; 31
    37ae:	31 96       	adiw	r30, 0x01	; 1
    37b0:	00 b4       	in	r0, 0x20	; 32
    37b2:	0d 92       	st	X+, r0
    37b4:	41 50       	subi	r20, 0x01	; 1
    37b6:	50 40       	sbci	r21, 0x00	; 0
    37b8:	b8 f7       	brcc	.-18     	; 0x37a8 <eeprom_read_blraw+0x8>
    37ba:	08 95       	ret

000037bc <eeprom_update_block>:
    37bc:	dc 01       	movw	r26, r24
    37be:	a4 0f       	add	r26, r20
    37c0:	b5 1f       	adc	r27, r21
    37c2:	41 50       	subi	r20, 0x01	; 1
    37c4:	50 40       	sbci	r21, 0x00	; 0
    37c6:	48 f0       	brcs	.+18     	; 0x37da <eeprom_update_block+0x1e>
    37c8:	cb 01       	movw	r24, r22
    37ca:	84 0f       	add	r24, r20
    37cc:	95 1f       	adc	r25, r21
    37ce:	2e 91       	ld	r18, -X
    37d0:	0e 94 ef 1b 	call	0x37de	; 0x37de <eeprom_update_r18>
    37d4:	41 50       	subi	r20, 0x01	; 1
    37d6:	50 40       	sbci	r21, 0x00	; 0
    37d8:	d0 f7       	brcc	.-12     	; 0x37ce <eeprom_update_block+0x12>
    37da:	08 95       	ret

000037dc <eeprom_update_byte>:
    37dc:	26 2f       	mov	r18, r22

000037de <eeprom_update_r18>:
    37de:	f9 99       	sbic	0x1f, 1	; 31
    37e0:	fe cf       	rjmp	.-4      	; 0x37de <eeprom_update_r18>
    37e2:	92 bd       	out	0x22, r25	; 34
    37e4:	81 bd       	out	0x21, r24	; 33
    37e6:	f8 9a       	sbi	0x1f, 0	; 31
    37e8:	01 97       	sbiw	r24, 0x01	; 1
    37ea:	00 b4       	in	r0, 0x20	; 32
    37ec:	02 16       	cp	r0, r18
    37ee:	39 f0       	breq	.+14     	; 0x37fe <eeprom_update_r18+0x20>
    37f0:	1f ba       	out	0x1f, r1	; 31
    37f2:	20 bd       	out	0x20, r18	; 32
    37f4:	0f b6       	in	r0, 0x3f	; 63
    37f6:	f8 94       	cli
    37f8:	fa 9a       	sbi	0x1f, 2	; 31
    37fa:	f9 9a       	sbi	0x1f, 1	; 31
    37fc:	0f be       	out	0x3f, r0	; 63
    37fe:	08 95       	ret

00003800 <eeprom_write_block>:
    3800:	dc 01       	movw	r26, r24
    3802:	cb 01       	movw	r24, r22
    3804:	03 c0       	rjmp	.+6      	; 0x380c <eeprom_write_block+0xc>
    3806:	2d 91       	ld	r18, X+
    3808:	0e 94 0b 1c 	call	0x3816	; 0x3816 <eeprom_write_r18>
    380c:	41 50       	subi	r20, 0x01	; 1
    380e:	50 40       	sbci	r21, 0x00	; 0
    3810:	d0 f7       	brcc	.-12     	; 0x3806 <eeprom_write_block+0x6>
    3812:	08 95       	ret

00003814 <eeprom_write_byte>:
    3814:	26 2f       	mov	r18, r22

00003816 <eeprom_write_r18>:
    3816:	f9 99       	sbic	0x1f, 1	; 31
    3818:	fe cf       	rjmp	.-4      	; 0x3816 <eeprom_write_r18>
    381a:	1f ba       	out	0x1f, r1	; 31
    381c:	92 bd       	out	0x22, r25	; 34
    381e:	81 bd       	out	0x21, r24	; 33
    3820:	20 bd       	out	0x20, r18	; 32
    3822:	0f b6       	in	r0, 0x3f	; 63
    3824:	f8 94       	cli
    3826:	fa 9a       	sbi	0x1f, 2	; 31
    3828:	f9 9a       	sbi	0x1f, 1	; 31
    382a:	0f be       	out	0x3f, r0	; 63
    382c:	01 96       	adiw	r24, 0x01	; 1
    382e:	08 95       	ret

00003830 <__prologue_saves__>:
    3830:	2f 92       	push	r2
    3832:	3f 92       	push	r3
    3834:	4f 92       	push	r4
    3836:	5f 92       	push	r5
    3838:	6f 92       	push	r6
    383a:	7f 92       	push	r7
    383c:	8f 92       	push	r8
    383e:	9f 92       	push	r9
    3840:	af 92       	push	r10
    3842:	bf 92       	push	r11
    3844:	cf 92       	push	r12
    3846:	df 92       	push	r13
    3848:	ef 92       	push	r14
    384a:	ff 92       	push	r15
    384c:	0f 93       	push	r16
    384e:	1f 93       	push	r17
    3850:	cf 93       	push	r28
    3852:	df 93       	push	r29
    3854:	cd b7       	in	r28, 0x3d	; 61
    3856:	de b7       	in	r29, 0x3e	; 62
    3858:	ca 1b       	sub	r28, r26
    385a:	db 0b       	sbc	r29, r27
    385c:	0f b6       	in	r0, 0x3f	; 63
    385e:	f8 94       	cli
    3860:	de bf       	out	0x3e, r29	; 62
    3862:	0f be       	out	0x3f, r0	; 63
    3864:	cd bf       	out	0x3d, r28	; 61
    3866:	09 94       	ijmp

00003868 <__epilogue_restores__>:
    3868:	2a 88       	ldd	r2, Y+18	; 0x12
    386a:	39 88       	ldd	r3, Y+17	; 0x11
    386c:	48 88       	ldd	r4, Y+16	; 0x10
    386e:	5f 84       	ldd	r5, Y+15	; 0x0f
    3870:	6e 84       	ldd	r6, Y+14	; 0x0e
    3872:	7d 84       	ldd	r7, Y+13	; 0x0d
    3874:	8c 84       	ldd	r8, Y+12	; 0x0c
    3876:	9b 84       	ldd	r9, Y+11	; 0x0b
    3878:	aa 84       	ldd	r10, Y+10	; 0x0a
    387a:	b9 84       	ldd	r11, Y+9	; 0x09
    387c:	c8 84       	ldd	r12, Y+8	; 0x08
    387e:	df 80       	ldd	r13, Y+7	; 0x07
    3880:	ee 80       	ldd	r14, Y+6	; 0x06
    3882:	fd 80       	ldd	r15, Y+5	; 0x05
    3884:	0c 81       	ldd	r16, Y+4	; 0x04
    3886:	1b 81       	ldd	r17, Y+3	; 0x03
    3888:	aa 81       	ldd	r26, Y+2	; 0x02
    388a:	b9 81       	ldd	r27, Y+1	; 0x01
    388c:	ce 0f       	add	r28, r30
    388e:	d1 1d       	adc	r29, r1
    3890:	0f b6       	in	r0, 0x3f	; 63
    3892:	f8 94       	cli
    3894:	de bf       	out	0x3e, r29	; 62
    3896:	0f be       	out	0x3f, r0	; 63
    3898:	cd bf       	out	0x3d, r28	; 61
    389a:	ed 01       	movw	r28, r26
    389c:	08 95       	ret

0000389e <__do_global_dtors>:
    389e:	10 e0       	ldi	r17, 0x00	; 0
    38a0:	c2 ec       	ldi	r28, 0xC2	; 194
    38a2:	d0 e0       	ldi	r29, 0x00	; 0
    38a4:	04 c0       	rjmp	.+8      	; 0x38ae <__do_global_dtors+0x10>
    38a6:	fe 01       	movw	r30, r28
    38a8:	0e 94 e1 15 	call	0x2bc2	; 0x2bc2 <__tablejump2__>
    38ac:	21 96       	adiw	r28, 0x01	; 1
    38ae:	c3 3c       	cpi	r28, 0xC3	; 195
    38b0:	d1 07       	cpc	r29, r17
    38b2:	c9 f7       	brne	.-14     	; 0x38a6 <__do_global_dtors+0x8>
    38b4:	f8 94       	cli

000038b6 <__stop_program>:
    38b6:	ff cf       	rjmp	.-2      	; 0x38b6 <__stop_program>
